ARM GAS  C:\Users\tadge\AppData\Local\Temp\ccG1v2a7.s 			page 1


   1              		.syntax unified
   2              		.cpu cortex-m3
   3              		.fpu softvfp
   4              		.eabi_attribute 20, 1
   5              		.eabi_attribute 21, 1
   6              		.eabi_attribute 23, 3
   7              		.eabi_attribute 24, 1
   8              		.eabi_attribute 25, 1
   9              		.eabi_attribute 26, 1
  10              		.eabi_attribute 30, 1
  11              		.eabi_attribute 34, 1
  12              		.eabi_attribute 18, 4
  13              		.thumb
  14              		.file	"main.c"
  15              		.text
  16              	.Ltext0:
  17              		.cfi_sections	.debug_frame
  18              		.section	.text.Timer_1_Handler,"ax",%progbits
  19              		.align	2
  20              		.global	Timer_1_Handler
  21              		.thumb
  22              		.thumb_func
  23              		.type	Timer_1_Handler, %function
  24              	Timer_1_Handler:
  25              	.LFB65:
  26              		.file 1 "main.c"
   1:main.c        **** // include directives
   2:main.c        **** #include "project.h"
   3:main.c        **** #include <math.h>
   4:main.c        **** #include <stdio.h>
   5:main.c        **** #include <stdint.h>
   6:main.c        **** #include <time.h>
   7:main.c        **** 
   8:main.c        **** extern void forward();
   9:main.c        **** extern void stop();
  10:main.c        **** extern void drive();
  11:main.c        **** extern void turn_wheel();
  12:main.c        **** extern void turn();
  13:main.c        **** extern void straight();
  14:main.c        **** extern void turn();
  15:main.c        **** extern void Check_Speed();
  16:main.c        **** extern void Print_Values();
  17:main.c        **** extern void new_path();
  18:main.c        **** extern int get_serial_update();
  19:main.c        **** extern void get_serial_speed();
  20:main.c        **** extern void get_serial_control();
  21:main.c        **** extern void test_values();
  22:main.c        **** extern void step_response();
  23:main.c        **** extern void update_angle();
  24:main.c        **** 
  25:main.c        **** 
  26:main.c        **** char mystring[50];
  27:main.c        **** 
  28:main.c        **** //turn on all components
  29:main.c        **** void Setup(){
  30:main.c        ****     
  31:main.c        ****     PWM_M1_Start();
ARM GAS  C:\Users\tadge\AppData\Local\Temp\ccG1v2a7.s 			page 2


  32:main.c        ****     PWM_M2_Start();
  33:main.c        ****     UART_Start();
  34:main.c        ****     M1Clock_Start();
  35:main.c        ****     MClock_Start();
  36:main.c        ****     
  37:main.c        ****     M1QuadDec_Start();
  38:main.c        ****     M1QuadDec_Enable();
  39:main.c        ****     CyDelay(1000);
  40:main.c        ****     M1QuadDec_SetCounter(0);
  41:main.c        **** 
  42:main.c        ****     CyDelay(1000);
  43:main.c        ****     
  44:main.c        ****     M2QuadDec_Start();
  45:main.c        ****     M2QuadDec_Enable();
  46:main.c        ****     CyDelay(1000);
  47:main.c        ****     M2QuadDec_SetCounter(0);
  48:main.c        ****     
  49:main.c        ****     Timer_1_Start();
  50:main.c        ****     isr_1ms_Enable();
  51:main.c        ****    
  52:main.c        **** }
  53:main.c        **** 
  54:main.c        **** void Stop(){
  55:main.c        **** PWM_M1_Stop();
  56:main.c        ****     PWM_M2_Stop();}
  57:main.c        **** CY_ISR( Timer_1_Handler ){
  27              		.loc 1 57 0
  28              		.cfi_startproc
  29              		@ args = 0, pretend = 0, frame = 0
  30              		@ frame_needed = 0, uses_anonymous_args = 0
  31 0000 08B5     		push	{r3, lr}
  32              		.cfi_def_cfa_offset 8
  33              		.cfi_offset 3, -8
  34              		.cfi_offset 14, -4
  58:main.c        ****     
  59:main.c        ****     Check_Speed(30);
  35              		.loc 1 59 0
  36 0002 1E20     		movs	r0, #30
  37 0004 FFF7FEFF 		bl	Check_Speed
  38              	.LVL0:
  60:main.c        ****     Timer_1_ReadStatusRegister();
  39              		.loc 1 60 0
  40 0008 FFF7FEFF 		bl	Timer_1_ReadStatusRegister
  41              	.LVL1:
  42 000c 08BD     		pop	{r3, pc}
  43              		.cfi_endproc
  44              	.LFE65:
  45              		.size	Timer_1_Handler, .-Timer_1_Handler
  46 000e 00BF     		.section	.text.Setup,"ax",%progbits
  47              		.align	2
  48              		.global	Setup
  49              		.thumb
  50              		.thumb_func
  51              		.type	Setup, %function
  52              	Setup:
  53              	.LFB63:
  29:main.c        ****     
ARM GAS  C:\Users\tadge\AppData\Local\Temp\ccG1v2a7.s 			page 3


  54              		.loc 1 29 0
  55              		.cfi_startproc
  56              		@ args = 0, pretend = 0, frame = 0
  57              		@ frame_needed = 0, uses_anonymous_args = 0
  58 0000 08B5     		push	{r3, lr}
  59              		.cfi_def_cfa_offset 8
  60              		.cfi_offset 3, -8
  61              		.cfi_offset 14, -4
  31:main.c        ****     PWM_M2_Start();
  62              		.loc 1 31 0
  63 0002 FFF7FEFF 		bl	PWM_M1_Start
  64              	.LVL2:
  32:main.c        ****     UART_Start();
  65              		.loc 1 32 0
  66 0006 FFF7FEFF 		bl	PWM_M2_Start
  67              	.LVL3:
  33:main.c        ****     M1Clock_Start();
  68              		.loc 1 33 0
  69 000a FFF7FEFF 		bl	UART_Start
  70              	.LVL4:
  34:main.c        ****     MClock_Start();
  71              		.loc 1 34 0
  72 000e FFF7FEFF 		bl	M1Clock_Start
  73              	.LVL5:
  35:main.c        ****     
  74              		.loc 1 35 0
  75 0012 FFF7FEFF 		bl	MClock_Start
  76              	.LVL6:
  37:main.c        ****     M1QuadDec_Enable();
  77              		.loc 1 37 0
  78 0016 FFF7FEFF 		bl	M1QuadDec_Start
  79              	.LVL7:
  38:main.c        ****     CyDelay(1000);
  80              		.loc 1 38 0
  81 001a FFF7FEFF 		bl	M1QuadDec_Enable
  82              	.LVL8:
  39:main.c        ****     M1QuadDec_SetCounter(0);
  83              		.loc 1 39 0
  84 001e 4FF47A70 		mov	r0, #1000
  85 0022 FFF7FEFF 		bl	CyDelay
  86              	.LVL9:
  40:main.c        **** 
  87              		.loc 1 40 0
  88 0026 0020     		movs	r0, #0
  89 0028 FFF7FEFF 		bl	M1QuadDec_SetCounter
  90              	.LVL10:
  42:main.c        ****     
  91              		.loc 1 42 0
  92 002c 4FF47A70 		mov	r0, #1000
  93 0030 FFF7FEFF 		bl	CyDelay
  94              	.LVL11:
  44:main.c        ****     M2QuadDec_Enable();
  95              		.loc 1 44 0
  96 0034 FFF7FEFF 		bl	M2QuadDec_Start
  97              	.LVL12:
  45:main.c        ****     CyDelay(1000);
  98              		.loc 1 45 0
ARM GAS  C:\Users\tadge\AppData\Local\Temp\ccG1v2a7.s 			page 4


  99 0038 FFF7FEFF 		bl	M2QuadDec_Enable
 100              	.LVL13:
  46:main.c        ****     M2QuadDec_SetCounter(0);
 101              		.loc 1 46 0
 102 003c 4FF47A70 		mov	r0, #1000
 103 0040 FFF7FEFF 		bl	CyDelay
 104              	.LVL14:
  47:main.c        ****     
 105              		.loc 1 47 0
 106 0044 0020     		movs	r0, #0
 107 0046 FFF7FEFF 		bl	M2QuadDec_SetCounter
 108              	.LVL15:
  49:main.c        ****     isr_1ms_Enable();
 109              		.loc 1 49 0
 110 004a FFF7FEFF 		bl	Timer_1_Start
 111              	.LVL16:
  50:main.c        ****    
 112              		.loc 1 50 0
 113 004e FFF7FEFF 		bl	isr_1ms_Enable
 114              	.LVL17:
 115 0052 08BD     		pop	{r3, pc}
 116              		.cfi_endproc
 117              	.LFE63:
 118              		.size	Setup, .-Setup
 119              		.section	.text.Stop,"ax",%progbits
 120              		.align	2
 121              		.global	Stop
 122              		.thumb
 123              		.thumb_func
 124              		.type	Stop, %function
 125              	Stop:
 126              	.LFB64:
  54:main.c        **** PWM_M1_Stop();
 127              		.loc 1 54 0
 128              		.cfi_startproc
 129              		@ args = 0, pretend = 0, frame = 0
 130              		@ frame_needed = 0, uses_anonymous_args = 0
 131 0000 08B5     		push	{r3, lr}
 132              		.cfi_def_cfa_offset 8
 133              		.cfi_offset 3, -8
 134              		.cfi_offset 14, -4
  55:main.c        ****     PWM_M2_Stop();}
 135              		.loc 1 55 0
 136 0002 FFF7FEFF 		bl	PWM_M1_Stop
 137              	.LVL18:
  56:main.c        **** CY_ISR( Timer_1_Handler ){
 138              		.loc 1 56 0
 139 0006 FFF7FEFF 		bl	PWM_M2_Stop
 140              	.LVL19:
 141 000a 08BD     		pop	{r3, pc}
 142              		.cfi_endproc
 143              	.LFE64:
 144              		.size	Stop, .-Stop
 145              		.section	.text.main,"ax",%progbits
 146              		.align	2
 147              		.global	main
 148              		.thumb
ARM GAS  C:\Users\tadge\AppData\Local\Temp\ccG1v2a7.s 			page 5


 149              		.thumb_func
 150              		.type	main, %function
 151              	main:
 152              	.LFB66:
  61:main.c        ****     //Print_Values();
  62:main.c        ****     
  63:main.c        ****     
  64:main.c        **** }
  65:main.c        **** 
  66:main.c        **** int main(void){
 153              		.loc 1 66 0
 154              		.cfi_startproc
 155              		@ args = 0, pretend = 0, frame = 16
 156              		@ frame_needed = 0, uses_anonymous_args = 0
 157 0000 10B5     		push	{r4, lr}
 158              		.cfi_def_cfa_offset 8
 159              		.cfi_offset 4, -8
 160              		.cfi_offset 14, -4
 161 0002 84B0     		sub	sp, sp, #16
 162              		.cfi_def_cfa_offset 24
  67:main.c        ****     
  68:main.c        ****     CyGlobalIntEnable;
 163              		.loc 1 68 0
 164              	@ 68 "main.c" 1
 165 0004 62B6     		CPSIE   i
 166              	@ 0 "" 2
  69:main.c        ****     
  70:main.c        ****     Setup();
 167              		.loc 1 70 0
 168              		.thumb
 169 0006 FFF7FEFF 		bl	Setup
 170              	.LVL20:
  71:main.c        ****     char str[50];
  72:main.c        **** 
  73:main.c        ****     isr_1ms_StartEx( Timer_1_Handler );
 171              		.loc 1 73 0
 172 000a 1F48     		ldr	r0, .L17
 173 000c FFF7FEFF 		bl	isr_1ms_StartEx
 174              	.LVL21:
  74:main.c        ****     int counter = 0; 
  75:main.c        ****     Timer_1_WritePeriod(12000); //CHANGE THIS BACK TO 12000
 175              		.loc 1 75 0
 176 0010 42F6E060 		movw	r0, #12000
 177 0014 FFF7FEFF 		bl	Timer_1_WritePeriod
 178              	.LVL22:
  76:main.c        ****     int trigger1=0;
  77:main.c        ****     int int1=0;
 179              		.loc 1 77 0
 180 0018 0023     		movs	r3, #0
 181 001a 0393     		str	r3, [sp, #12]
  78:main.c        ****     int int2=0;
 182              		.loc 1 78 0
 183 001c 0293     		str	r3, [sp, #8]
 184              	.LVL23:
 185              	.L8:
  79:main.c        ****     int int3=0;
  80:main.c        ****     int update;
ARM GAS  C:\Users\tadge\AppData\Local\Temp\ccG1v2a7.s 			page 6


  81:main.c        ****     double int11;
  82:main.c        ****     double int22;
  83:main.c        ****     double int33;
  84:main.c        ****     long int angle;
  85:main.c        ****     int i;
  86:main.c        ****      /*  
  87:main.c        ****     for(;;){ 
  88:main.c        ****     
  89:main.c        ****     get_serial_update(&update);
  90:main.c        ****     
  91:main.c        ****     if(update==0){      
  92:main.c        ****         UART_PutString("----- Reset -----\n"); 
  93:main.c        ****         CySoftwareReset();
  94:main.c        ****         
  95:main.c        ****     }
  96:main.c        ****     else if (update==2){
  97:main.c        ****         UART_PutString("----- Speed -----\n"); 
  98:main.c        ****         get_serial_speed(&int1, &int2);
  99:main.c        ****         new_path(int1,int2);
 100:main.c        ****         do {                
 101:main.c        ****             Print_Values();
 102:main.c        ****             if((0u != UART_ReadRxStatus())||(0u != UART_GetRxBufferSize())){trigger1=1;}
 103:main.c        ****         } while(trigger1==0);
 104:main.c        ****     
 105:main.c        ****     }
 106:main.c        ****     else if (update==1){
 107:main.c        ****         UART_PutString("----- Update  -----\n"); 
 108:main.c        ****         get_serial_control(&int11,&int22,&int33);
 109:main.c        ****         test_values(int11,int22,int33); 
 110:main.c        ****     } 
 111:main.c        ****     else if (update==3){
 112:main.c        ****         
 113:main.c        ****         UART_PutString("----- Distance -----\n"); 
 114:main.c        ****         get_serial_speed(&int111, &int222);
 115:main.c        ****         step_response(int111,int222);
 116:main.c        ****         
 117:main.c        ****         do {                
 118:main.c        ****             Print_Values();
 119:main.c        ****             if((0u != UART_ReadRxStatus())||(0u != UART_GetRxBufferSize())){trigger1=1;}
 120:main.c        ****         } while(trigger1==0);
 121:main.c        ****     
 122:main.c        ****     }
 123:main.c        ****     trigger1=0;
 124:main.c        ****     
 125:main.c        ****     
 126:main.c        ****     }
 127:main.c        ****     */
 128:main.c        ****     
 129:main.c        ****     
 130:main.c        ****     for(;;){
 131:main.c        ****         get_serial_update(&update);
 186              		.loc 1 131 0
 187 001e 01A8     		add	r0, sp, #4
 188 0020 FFF7FEFF 		bl	get_serial_update
 189              	.LVL24:
 132:main.c        ****         
 133:main.c        ****         if(update==0){      
ARM GAS  C:\Users\tadge\AppData\Local\Temp\ccG1v2a7.s 			page 7


 190              		.loc 1 133 0
 191 0024 019B     		ldr	r3, [sp, #4]
 192 0026 2BB9     		cbnz	r3, .L9
 134:main.c        ****             UART_PutString("----- Reset -----\n"); 
 193              		.loc 1 134 0
 194 0028 1848     		ldr	r0, .L17+4
 195 002a FFF7FEFF 		bl	UART_PutString
 196              	.LVL25:
 135:main.c        ****             CySoftwareReset();
 197              		.loc 1 135 0
 198 002e FFF7FEFF 		bl	CySoftwareReset
 199              	.LVL26:
 200 0032 F4E7     		b	.L8
 201              	.L9:
 136:main.c        ****             
 137:main.c        ****         }
 138:main.c        ****         // update the base speed of the robot
 139:main.c        ****         else if (update==2){
 202              		.loc 1 139 0
 203 0034 022B     		cmp	r3, #2
 204 0036 0BD1     		bne	.L11
 140:main.c        ****             UART_PutString("----- Speed -----\n"); 
 205              		.loc 1 140 0
 206 0038 1548     		ldr	r0, .L17+8
 207 003a FFF7FEFF 		bl	UART_PutString
 208              	.LVL27:
 141:main.c        ****             get_serial_speed(&int1, &int2);
 209              		.loc 1 141 0
 210 003e 03A8     		add	r0, sp, #12
 211 0040 02A9     		add	r1, sp, #8
 212 0042 FFF7FEFF 		bl	get_serial_speed
 213              	.LVL28:
 142:main.c        ****             new_path(int1,int2);
 214              		.loc 1 142 0
 215 0046 0398     		ldr	r0, [sp, #12]
 216 0048 0299     		ldr	r1, [sp, #8]
 217 004a FFF7FEFF 		bl	new_path
 218              	.LVL29:
 219 004e E6E7     		b	.L8
 220              	.L11:
 143:main.c        ****         }
 144:main.c        **** 
 145:main.c        ****         // update a 1 time increment
 146:main.c        ****         else if (update==3){
 221              		.loc 1 146 0
 222 0050 032B     		cmp	r3, #3
 223 0052 E4D1     		bne	.L8
 147:main.c        ****         UART_PutString("----- Angle -----\n"); 
 224              		.loc 1 147 0
 225 0054 0F48     		ldr	r0, .L17+12
 226 0056 FFF7FEFF 		bl	UART_PutString
 227              	.LVL30:
 148:main.c        ****         get_serial_update(&angle);
 228              		.loc 1 148 0
 229 005a 6846     		mov	r0, sp
 230 005c FFF7FEFF 		bl	get_serial_update
 231              	.LVL31:
ARM GAS  C:\Users\tadge\AppData\Local\Temp\ccG1v2a7.s 			page 8


 149:main.c        ****         update_angle(angle);
 232              		.loc 1 149 0
 233 0060 0098     		ldr	r0, [sp]
 234 0062 FFF7FEFF 		bl	update_angle
 235              	.LVL32:
 236 0066 0024     		movs	r4, #0
 237              	.LVL33:
 238              	.L13:
 150:main.c        ****         
 151:main.c        ****         do {                
 152:main.c        ****             Print_Values();
 239              		.loc 1 152 0
 240 0068 FFF7FEFF 		bl	Print_Values
 241              	.LVL34:
 153:main.c        ****             if((0u != UART_ReadRxStatus())||(0u != UART_GetRxBufferSize())){trigger1=1;}
 242              		.loc 1 153 0
 243 006c FFF7FEFF 		bl	UART_ReadRxStatus
 244              	.LVL35:
 245 0070 18B9     		cbnz	r0, .L14
 246              		.loc 1 153 0 is_stmt 0 discriminator 2
 247 0072 FFF7FEFF 		bl	UART_GetRxBufferSize
 248              	.LVL36:
 249 0076 10B9     		cbnz	r0, .L15
 250 0078 02E0     		b	.L12
 251              	.L14:
 252              		.loc 1 153 0
 253 007a 0124     		movs	r4, #1
 254              	.LVL37:
 255 007c 00E0     		b	.L12
 256              	.LVL38:
 257              	.L15:
 258 007e 0124     		movs	r4, #1
 259              	.LVL39:
 260              	.L12:
 154:main.c        ****         } while(trigger1==0);
 261              		.loc 1 154 0 is_stmt 1
 262 0080 002C     		cmp	r4, #0
 263 0082 F1D0     		beq	.L13
 264 0084 CBE7     		b	.L8
 265              	.L18:
 266 0086 00BF     		.align	2
 267              	.L17:
 268 0088 00000000 		.word	Timer_1_Handler
 269 008c 00000000 		.word	.LC0
 270 0090 14000000 		.word	.LC1
 271 0094 28000000 		.word	.LC2
 272              		.cfi_endproc
 273              	.LFE66:
 274              		.size	main, .-main
 275              		.comm	mystring,50,4
 276              		.section	.rodata.str1.4,"aMS",%progbits,1
 277              		.align	2
 278              	.LC0:
 279 0000 2D2D2D2D 		.ascii	"----- Reset -----\012\000"
 279      2D205265 
 279      73657420 
 279      2D2D2D2D 
ARM GAS  C:\Users\tadge\AppData\Local\Temp\ccG1v2a7.s 			page 9


 279      2D0A00
 280 0013 00       		.space	1
 281              	.LC1:
 282 0014 2D2D2D2D 		.ascii	"----- Speed -----\012\000"
 282      2D205370 
 282      65656420 
 282      2D2D2D2D 
 282      2D0A00
 283 0027 00       		.space	1
 284              	.LC2:
 285 0028 2D2D2D2D 		.ascii	"----- Angle -----\012\000"
 285      2D20416E 
 285      676C6520 
 285      2D2D2D2D 
 285      2D0A00
 286 003b 00       		.text
 287              	.Letext0:
 288              		.file 2 "c:\\program files (x86)\\cypress\\psoc creator\\4.0\\psoc creator\\import\\gnu\\arm\\4.9.
 289              		.file 3 "c:\\program files (x86)\\cypress\\psoc creator\\4.0\\psoc creator\\import\\gnu\\arm\\4.9.
 290              		.file 4 "Generated_Source\\PSoC5/cytypes.h"
 291              		.file 5 "Generated_Source\\PSoC5/core_cm3.h"
 292              		.file 6 "Generated_Source\\PSoC5/PWM_M1.h"
 293              		.file 7 "Generated_Source\\PSoC5/PWM_M2.h"
 294              		.file 8 "Generated_Source\\PSoC5/UART.h"
 295              		.file 9 "Generated_Source\\PSoC5/M1Clock.h"
 296              		.file 10 "Generated_Source\\PSoC5/MClock.h"
 297              		.file 11 "Generated_Source\\PSoC5/M1QuadDec.h"
 298              		.file 12 "Generated_Source\\PSoC5/CyLib.h"
 299              		.file 13 "Generated_Source\\PSoC5/M2QuadDec.h"
 300              		.file 14 "Generated_Source\\PSoC5/Timer_1.h"
 301              		.file 15 "Generated_Source\\PSoC5/isr_1ms.h"