ARM GAS  C:\Users\tadge\AppData\Local\Temp\cckLVLLS.s 			page 1


   1              		.syntax unified
   2              		.cpu cortex-m3
   3              		.fpu softvfp
   4              		.eabi_attribute 20, 1
   5              		.eabi_attribute 21, 1
   6              		.eabi_attribute 23, 3
   7              		.eabi_attribute 24, 1
   8              		.eabi_attribute 25, 1
   9              		.eabi_attribute 26, 1
  10              		.eabi_attribute 30, 1
  11              		.eabi_attribute 34, 1
  12              		.eabi_attribute 18, 4
  13              		.thumb
  14              		.file	"movement.c"
  15              		.text
  16              	.Ltext0:
  17              		.cfi_sections	.debug_frame
  18              		.section	.text.turn_wheel,"ax",%progbits
  19              		.align	2
  20              		.global	turn_wheel
  21              		.thumb
  22              		.thumb_func
  23              		.type	turn_wheel, %function
  24              	turn_wheel:
  25              	.LFB63:
  26              		.file 1 "movement.c"
   1:movement.c    **** // include directives
   2:movement.c    **** 
   3:movement.c    **** // RIGHT WHEEL IS MOTOR 2 !!!!!!!!!!!!!!!!!!!!!!!!!!!!!!!!!!!!!!!!!!!!!!!!!!!!
   4:movement.c    **** // speed is a value between 0 and 65535
   5:movement.c    **** #include "project.h"
   6:movement.c    **** #include <math.h>
   7:movement.c    **** #include <stdio.h>
   8:movement.c    **** #include <stdint.h>
   9:movement.c    **** #include <stdlib.h>
  10:movement.c    **** #include <time.h>
  11:movement.c    ****     
  12:movement.c    **** char mystring[50];
  13:movement.c    **** //Shevin
  14:movement.c    **** 
  15:movement.c    **** /* declare global variables */
  16:movement.c    **** 
  17:movement.c    **** 
  18:movement.c    ****     long int cur_dest_left = 0;
  19:movement.c    ****     long int cur_dest_right = 0;  
  20:movement.c    ****     long int prev_dest_right;
  21:movement.c    ****     long int prev_dest_left;
  22:movement.c    ****     
  23:movement.c    ****     long int cur_pos_left;  
  24:movement.c    ****     long int cur_pos_right;
  25:movement.c    ****     long int last_pos_right;
  26:movement.c    ****     long int last_pos_left;
  27:movement.c    **** 
  28:movement.c    ****     int volt_motor_left;
  29:movement.c    ****     int volt_motor_right;
  30:movement.c    **** 
  31:movement.c    ****     int adj_motor_left;
ARM GAS  C:\Users\tadge\AppData\Local\Temp\cckLVLLS.s 			page 2


  32:movement.c    ****     int adj_motor_right;
  33:movement.c    **** 
  34:movement.c    ****     int error_left;
  35:movement.c    ****     int error_right;
  36:movement.c    **** 
  37:movement.c    ****     int error_left_prev;
  38:movement.c    ****     int error_right_prev;
  39:movement.c    **** 
  40:movement.c    ****     int error_left_sum;
  41:movement.c    ****     int error_right_sum;
  42:movement.c    **** 
  43:movement.c    ****     long int distance_left;
  44:movement.c    ****     long int distance_right;
  45:movement.c    **** 
  46:movement.c    ****     double Kp=100;
  47:movement.c    ****     double Ki=0.1;
  48:movement.c    ****     double Kd=1000;
  49:movement.c    **** 
  50:movement.c    ****     int speed_left;
  51:movement.c    ****     int speed_right;
  52:movement.c    **** 
  53:movement.c    ****     int inc_left;
  54:movement.c    ****     int inc_right;
  55:movement.c    **** 
  56:movement.c    ****     long int time_ms;
  57:movement.c    ****     long int time_ms_start;
  58:movement.c    **** 
  59:movement.c    **** 
  60:movement.c    ****     
  61:movement.c    **** 
  62:movement.c    **** void turn_wheel(char side, int volt){
  27              		.loc 1 62 0
  28              		.cfi_startproc
  29              		@ args = 0, pretend = 0, frame = 0
  30              		@ frame_needed = 0, uses_anonymous_args = 0
  31              	.LVL0:
  32 0000 38B5     		push	{r3, r4, r5, lr}
  33              		.cfi_def_cfa_offset 16
  34              		.cfi_offset 3, -16
  35              		.cfi_offset 4, -12
  36              		.cfi_offset 5, -8
  37              		.cfi_offset 14, -4
  38 0002 0446     		mov	r4, r0
  39 0004 0D46     		mov	r5, r1
  63:movement.c    ****     // turning right wheel
  64:movement.c    ****     if (side == 'r'){
  40              		.loc 1 64 0
  41 0006 7228     		cmp	r0, #114
  42 0008 21D1     		bne	.L2
  65:movement.c    ****         Standby_Write(1);
  43              		.loc 1 65 0
  44 000a 0120     		movs	r0, #1
  45              	.LVL1:
  46 000c FFF7FEFF 		bl	Standby_Write
  47              	.LVL2:
  66:movement.c    ****         PWM_M2_WriteCompare(abs(volt));
  48              		.loc 1 66 0
ARM GAS  C:\Users\tadge\AppData\Local\Temp\cckLVLLS.s 			page 3


  49 0010 85EAE570 		eor	r0, r5, r5, asr #31
  50 0014 A0EBE570 		sub	r0, r0, r5, asr #31
  51 0018 80B2     		uxth	r0, r0
  52 001a FFF7FEFF 		bl	PWM_M2_WriteCompare
  53              	.LVL3:
  67:movement.c    ****         
  68:movement.c    ****         if (volt > 0)
  54              		.loc 1 68 0
  55 001e 002D     		cmp	r5, #0
  56 0020 06DD     		ble	.L3
  69:movement.c    ****         {
  70:movement.c    ****             M2_FWD_Write(0);
  57              		.loc 1 70 0
  58 0022 0020     		movs	r0, #0
  59 0024 FFF7FEFF 		bl	M2_FWD_Write
  60              	.LVL4:
  71:movement.c    ****             M2_BWD_Write(1);
  61              		.loc 1 71 0
  62 0028 0120     		movs	r0, #1
  63 002a FFF7FEFF 		bl	M2_BWD_Write
  64              	.LVL5:
  65 002e 0EE0     		b	.L2
  66              	.L3:
  72:movement.c    ****         }
  73:movement.c    ****         else if (volt < 0)
  67              		.loc 1 73 0
  68 0030 002D     		cmp	r5, #0
  69 0032 06DA     		bge	.L4
  74:movement.c    ****         {
  75:movement.c    ****             M2_FWD_Write(1);
  70              		.loc 1 75 0
  71 0034 0120     		movs	r0, #1
  72 0036 FFF7FEFF 		bl	M2_FWD_Write
  73              	.LVL6:
  76:movement.c    ****             M2_BWD_Write(0);
  74              		.loc 1 76 0
  75 003a 0020     		movs	r0, #0
  76 003c FFF7FEFF 		bl	M2_BWD_Write
  77              	.LVL7:
  78 0040 05E0     		b	.L2
  79              	.L4:
  77:movement.c    ****         }
  78:movement.c    ****         else
  79:movement.c    ****         {
  80:movement.c    ****             M2_FWD_Write(0);
  80              		.loc 1 80 0
  81 0042 0020     		movs	r0, #0
  82 0044 FFF7FEFF 		bl	M2_FWD_Write
  83              	.LVL8:
  81:movement.c    ****             M2_BWD_Write(0);
  84              		.loc 1 81 0
  85 0048 0020     		movs	r0, #0
  86 004a FFF7FEFF 		bl	M2_BWD_Write
  87              	.LVL9:
  88              	.L2:
  82:movement.c    ****         }
  83:movement.c    ****     }
ARM GAS  C:\Users\tadge\AppData\Local\Temp\cckLVLLS.s 			page 4


  84:movement.c    ****     
  85:movement.c    ****     //turning left wheel
  86:movement.c    ****     if (side == 'l'){
  89              		.loc 1 86 0
  90 004e 6C2C     		cmp	r4, #108
  91 0050 21D1     		bne	.L1
  87:movement.c    ****         Standby_Write(1);
  92              		.loc 1 87 0
  93 0052 0120     		movs	r0, #1
  94 0054 FFF7FEFF 		bl	Standby_Write
  95              	.LVL10:
  88:movement.c    ****         PWM_M1_WriteCompare(abs(volt));
  96              		.loc 1 88 0
  97 0058 85EAE570 		eor	r0, r5, r5, asr #31
  98 005c A0EBE570 		sub	r0, r0, r5, asr #31
  99 0060 80B2     		uxth	r0, r0
 100 0062 FFF7FEFF 		bl	PWM_M1_WriteCompare
 101              	.LVL11:
  89:movement.c    ****         
  90:movement.c    ****         if (volt > 0)
 102              		.loc 1 90 0
 103 0066 002D     		cmp	r5, #0
 104 0068 06DD     		ble	.L6
  91:movement.c    ****         {
  92:movement.c    ****             M1_FWD_Write(0);
 105              		.loc 1 92 0
 106 006a 0020     		movs	r0, #0
 107 006c FFF7FEFF 		bl	M1_FWD_Write
 108              	.LVL12:
  93:movement.c    ****             M1_BWD_Write(1);
 109              		.loc 1 93 0
 110 0070 0120     		movs	r0, #1
 111 0072 FFF7FEFF 		bl	M1_BWD_Write
 112              	.LVL13:
 113 0076 38BD     		pop	{r3, r4, r5, pc}
 114              	.LVL14:
 115              	.L6:
  94:movement.c    ****         }
  95:movement.c    ****         else if (volt < 0)
 116              		.loc 1 95 0
 117 0078 002D     		cmp	r5, #0
 118 007a 06DA     		bge	.L7
  96:movement.c    ****         {
  97:movement.c    ****             M1_FWD_Write(1);
 119              		.loc 1 97 0
 120 007c 0120     		movs	r0, #1
 121 007e FFF7FEFF 		bl	M1_FWD_Write
 122              	.LVL15:
  98:movement.c    ****             M1_BWD_Write(0);
 123              		.loc 1 98 0
 124 0082 0020     		movs	r0, #0
 125 0084 FFF7FEFF 		bl	M1_BWD_Write
 126              	.LVL16:
 127 0088 38BD     		pop	{r3, r4, r5, pc}
 128              	.LVL17:
 129              	.L7:
  99:movement.c    ****         }
ARM GAS  C:\Users\tadge\AppData\Local\Temp\cckLVLLS.s 			page 5


 100:movement.c    ****         else
 101:movement.c    ****         {
 102:movement.c    ****             M1_FWD_Write(0);
 130              		.loc 1 102 0
 131 008a 0020     		movs	r0, #0
 132 008c FFF7FEFF 		bl	M1_FWD_Write
 133              	.LVL18:
 103:movement.c    ****             M1_BWD_Write(0);
 134              		.loc 1 103 0
 135 0090 0020     		movs	r0, #0
 136 0092 FFF7FEFF 		bl	M1_BWD_Write
 137              	.LVL19:
 138              	.L1:
 139 0096 38BD     		pop	{r3, r4, r5, pc}
 140              		.cfi_endproc
 141              	.LFE63:
 142              		.size	turn_wheel, .-turn_wheel
 143              		.section	.text.update_angle,"ax",%progbits
 144              		.align	2
 145              		.global	update_angle
 146              		.thumb
 147              		.thumb_func
 148              		.type	update_angle, %function
 149              	update_angle:
 150              	.LFB64:
 104:movement.c    ****         }
 105:movement.c    ****     }
 106:movement.c    **** }
 107:movement.c    **** void update_angle(angle){
 151              		.loc 1 107 0
 152              		.cfi_startproc
 153              		@ args = 0, pretend = 0, frame = 0
 154              		@ frame_needed = 0, uses_anonymous_args = 0
 155              		@ link register save eliminated.
 156              	.LVL20:
 108:movement.c    **** 
 109:movement.c    ****     distance_left = 1/2 * angle;
 157              		.loc 1 109 0
 158 0000 0023     		movs	r3, #0
 159 0002 024A     		ldr	r2, .L10
 160 0004 1360     		str	r3, [r2]
 110:movement.c    ****     distance_right = -1/2 * angle; 
 161              		.loc 1 110 0
 162 0006 024A     		ldr	r2, .L10+4
 163 0008 1360     		str	r3, [r2]
 164 000a 7047     		bx	lr
 165              	.L11:
 166              		.align	2
 167              	.L10:
 168 000c 00000000 		.word	distance_left
 169 0010 00000000 		.word	distance_right
 170              		.cfi_endproc
 171              	.LFE64:
 172              		.size	update_angle, .-update_angle
 173              		.section	.text.step_response,"ax",%progbits
 174              		.align	2
 175              		.global	step_response
ARM GAS  C:\Users\tadge\AppData\Local\Temp\cckLVLLS.s 			page 6


 176              		.thumb
 177              		.thumb_func
 178              		.type	step_response, %function
 179              	step_response:
 180              	.LFB65:
 111:movement.c    **** 
 112:movement.c    **** }
 113:movement.c    **** 
 114:movement.c    **** void step_response(long int left_dest, long int right_dest){
 181              		.loc 1 114 0
 182              		.cfi_startproc
 183              		@ args = 0, pretend = 0, frame = 0
 184              		@ frame_needed = 0, uses_anonymous_args = 0
 185              		@ link register save eliminated.
 186              	.LVL21:
 115:movement.c    ****     
 116:movement.c    ****      time_ms_start = time_ms; 
 187              		.loc 1 116 0
 188 0000 064B     		ldr	r3, .L13
 189 0002 1A68     		ldr	r2, [r3]
 190 0004 064B     		ldr	r3, .L13+4
 191 0006 1A60     		str	r2, [r3]
 117:movement.c    ****     
 118:movement.c    ****      cur_dest_left = left_dest;   
 192              		.loc 1 118 0
 193 0008 064B     		ldr	r3, .L13+8
 194 000a 1860     		str	r0, [r3]
 119:movement.c    ****      cur_dest_right = right_dest;
 195              		.loc 1 119 0
 196 000c 5960     		str	r1, [r3, #4]
 120:movement.c    ****         
 121:movement.c    ****      inc_left = 0;
 197              		.loc 1 121 0
 198 000e 0023     		movs	r3, #0
 199 0010 054A     		ldr	r2, .L13+12
 200 0012 1360     		str	r3, [r2]
 122:movement.c    ****      inc_right = 0;
 201              		.loc 1 122 0
 202 0014 054A     		ldr	r2, .L13+16
 203 0016 1360     		str	r3, [r2]
 204 0018 7047     		bx	lr
 205              	.L14:
 206 001a 00BF     		.align	2
 207              	.L13:
 208 001c 00000000 		.word	time_ms
 209 0020 00000000 		.word	time_ms_start
 210 0024 00000000 		.word	.LANCHOR0
 211 0028 00000000 		.word	inc_left
 212 002c 00000000 		.word	inc_right
 213              		.cfi_endproc
 214              	.LFE65:
 215              		.size	step_response, .-step_response
 216              		.section	.text.test_values,"ax",%progbits
 217              		.align	2
 218              		.global	test_values
 219              		.thumb
 220              		.thumb_func
ARM GAS  C:\Users\tadge\AppData\Local\Temp\cckLVLLS.s 			page 7


 221              		.type	test_values, %function
 222              	test_values:
 223              	.LFB66:
 123:movement.c    ****     
 124:movement.c    **** }
 125:movement.c    **** /*
 126:movement.c    **** void Get_StartSpeed(){
 127:movement.c    ****     speed_left = 10*(cur_dest_left - prev_dest_left);
 128:movement.c    ****     speed_right = 10*(cur_dest_right - prev_dest_left);
 129:movement.c    **** }
 130:movement.c    ****   
 131:movement.c    **** */
 132:movement.c    **** void test_values(double kp, double kd, double ki)
 133:movement.c    **** {   Kp=kp;
 224              		.loc 1 133 0
 225              		.cfi_startproc
 226              		@ args = 8, pretend = 0, frame = 0
 227              		@ frame_needed = 0, uses_anonymous_args = 0
 228              		@ link register save eliminated.
 229              	.LVL22:
 230 0000 10B4     		push	{r4}
 231              		.cfi_def_cfa_offset 4
 232              		.cfi_offset 4, -4
 233              		.loc 1 133 0
 234 0002 064C     		ldr	r4, .L17
 235 0004 C4E90001 		strd	r0, [r4]
 134:movement.c    ****     Kd=kd;
 236              		.loc 1 134 0
 237 0008 C4E90223 		strd	r2, [r4, #8]
 135:movement.c    ****     Ki=ki;
 238              		.loc 1 135 0
 239 000c DDE90123 		ldrd	r2, [sp, #4]
 240              	.LVL23:
 241 0010 C4E90423 		strd	r2, [r4, #16]
 136:movement.c    **** }
 242              		.loc 1 136 0
 243 0014 5DF8044B 		ldr	r4, [sp], #4
 244              		.cfi_restore 4
 245              		.cfi_def_cfa_offset 0
 246              	.LVL24:
 247 0018 7047     		bx	lr
 248              	.L18:
 249 001a 00BF     		.align	2
 250              	.L17:
 251 001c 00000000 		.word	.LANCHOR1
 252              		.cfi_endproc
 253              	.LFE66:
 254              		.size	test_values, .-test_values
 255              		.section	.text.new_path,"ax",%progbits
 256              		.align	2
 257              		.global	new_path
 258              		.thumb
 259              		.thumb_func
 260              		.type	new_path, %function
 261              	new_path:
 262              	.LFB67:
 137:movement.c    **** void new_path(int incleft, int incright){
ARM GAS  C:\Users\tadge\AppData\Local\Temp\cckLVLLS.s 			page 8


 263              		.loc 1 137 0
 264              		.cfi_startproc
 265              		@ args = 0, pretend = 0, frame = 0
 266              		@ frame_needed = 0, uses_anonymous_args = 0
 267              		@ link register save eliminated.
 268              	.LVL25:
 269 0000 10B4     		push	{r4}
 270              		.cfi_def_cfa_offset 4
 271              		.cfi_offset 4, -4
 138:movement.c    ****     
 139:movement.c    ****     
 140:movement.c    ****     inc_left = incleft + distance_left;
 272              		.loc 1 140 0
 273 0002 084C     		ldr	r4, .L21
 274 0004 2368     		ldr	r3, [r4]
 275 0006 1844     		add	r0, r0, r3
 276              	.LVL26:
 277 0008 074B     		ldr	r3, .L21+4
 278 000a 1860     		str	r0, [r3]
 141:movement.c    ****     inc_right = incright + distance_right;
 279              		.loc 1 141 0
 280 000c 074A     		ldr	r2, .L21+8
 281 000e 1368     		ldr	r3, [r2]
 282 0010 1944     		add	r1, r1, r3
 283              	.LVL27:
 284 0012 074B     		ldr	r3, .L21+12
 285 0014 1960     		str	r1, [r3]
 142:movement.c    ****     
 143:movement.c    ****     distance_left = 0;
 286              		.loc 1 143 0
 287 0016 0023     		movs	r3, #0
 288 0018 2360     		str	r3, [r4]
 144:movement.c    ****     distance_right = 0;
 289              		.loc 1 144 0
 290 001a 1360     		str	r3, [r2]
 145:movement.c    ****     
 146:movement.c    ****     
 147:movement.c    ****     /*
 148:movement.c    ****     
 149:movement.c    ****     int speed = 30;
 150:movement.c    ****     inc_left = speed;
 151:movement.c    ****     inc_right = speed;
 152:movement.c    ****     
 153:movement.c    ****     if (cur_dest_right < fin_dest_right){
 154:movement.c    ****         direction_right = 1;}
 155:movement.c    ****     else{
 156:movement.c    ****         direction_right = -1;}
 157:movement.c    ****     
 158:movement.c    ****     if (cur_dest_left < fin_dest_left){
 159:movement.c    ****         direction_left = 1;}
 160:movement.c    ****     else{
 161:movement.c    ****         direction_left = -1;}
 162:movement.c    ****     
 163:movement.c    ****     iterations_left = fin_dest_left - cur_dest_left;
 164:movement.c    ****     iterations_count_left = 0;
 165:movement.c    ****     
 166:movement.c    ****     iterations_right = fin_dest_right - cur_dest_right;
ARM GAS  C:\Users\tadge\AppData\Local\Temp\cckLVLLS.s 			page 9


 167:movement.c    ****     iterations_count_right = 0;
 168:movement.c    ****     
 169:movement.c    ****     */
 170:movement.c    ****     
 171:movement.c    **** }
 291              		.loc 1 171 0
 292 001c 5DF8044B 		ldr	r4, [sp], #4
 293              		.cfi_restore 4
 294              		.cfi_def_cfa_offset 0
 295 0020 7047     		bx	lr
 296              	.L22:
 297 0022 00BF     		.align	2
 298              	.L21:
 299 0024 00000000 		.word	distance_left
 300 0028 00000000 		.word	inc_left
 301 002c 00000000 		.word	distance_right
 302 0030 00000000 		.word	inc_right
 303              		.cfi_endproc
 304              	.LFE67:
 305              		.size	new_path, .-new_path
 306              		.section	.text.Get_Destination,"ax",%progbits
 307              		.align	2
 308              		.global	Get_Destination
 309              		.thumb
 310              		.thumb_func
 311              		.type	Get_Destination, %function
 312              	Get_Destination:
 313              	.LFB68:
 172:movement.c    **** 
 173:movement.c    **** 
 174:movement.c    **** 
 175:movement.c    **** void Get_Destination(){
 314              		.loc 1 175 0
 315              		.cfi_startproc
 316              		@ args = 0, pretend = 0, frame = 0
 317              		@ frame_needed = 0, uses_anonymous_args = 0
 318              		@ link register save eliminated.
 176:movement.c    ****     
 177:movement.c    ****     cur_dest_left = cur_dest_left + inc_left;
 319              		.loc 1 177 0
 320 0000 054B     		ldr	r3, .L24
 321 0002 1968     		ldr	r1, [r3]
 322 0004 054A     		ldr	r2, .L24+4
 323 0006 1268     		ldr	r2, [r2]
 324 0008 0A44     		add	r2, r2, r1
 325 000a 1A60     		str	r2, [r3]
 178:movement.c    ****     cur_dest_right = cur_dest_right + inc_right;
 326              		.loc 1 178 0
 327 000c 5968     		ldr	r1, [r3, #4]
 328 000e 044A     		ldr	r2, .L24+8
 329 0010 1268     		ldr	r2, [r2]
 330 0012 0A44     		add	r2, r2, r1
 331 0014 5A60     		str	r2, [r3, #4]
 332 0016 7047     		bx	lr
 333              	.L25:
 334              		.align	2
 335              	.L24:
ARM GAS  C:\Users\tadge\AppData\Local\Temp\cckLVLLS.s 			page 10


 336 0018 00000000 		.word	.LANCHOR0
 337 001c 00000000 		.word	inc_left
 338 0020 00000000 		.word	inc_right
 339              		.cfi_endproc
 340              	.LFE68:
 341              		.size	Get_Destination, .-Get_Destination
 342              		.section	.text.Get_Position,"ax",%progbits
 343              		.align	2
 344              		.global	Get_Position
 345              		.thumb
 346              		.thumb_func
 347              		.type	Get_Position, %function
 348              	Get_Position:
 349              	.LFB69:
 179:movement.c    **** }
 180:movement.c    **** void Get_Position(){
 350              		.loc 1 180 0
 351              		.cfi_startproc
 352              		@ args = 0, pretend = 0, frame = 0
 353              		@ frame_needed = 0, uses_anonymous_args = 0
 354 0000 08B5     		push	{r3, lr}
 355              		.cfi_def_cfa_offset 8
 356              		.cfi_offset 3, -8
 357              		.cfi_offset 14, -4
 181:movement.c    ****     cur_pos_right = -64*M2QuadDec_GetCounter();
 358              		.loc 1 181 0
 359 0002 FFF7FEFF 		bl	M2QuadDec_GetCounter
 360              	.LVL28:
 361 0006 4042     		negs	r0, r0
 362 0008 8001     		lsls	r0, r0, #6
 363 000a 044B     		ldr	r3, .L28
 364 000c 1860     		str	r0, [r3]
 182:movement.c    ****     cur_pos_left = -64*M1QuadDec_GetCounter();
 365              		.loc 1 182 0
 366 000e FFF7FEFF 		bl	M1QuadDec_GetCounter
 367              	.LVL29:
 368 0012 4042     		negs	r0, r0
 369 0014 8001     		lsls	r0, r0, #6
 370 0016 024B     		ldr	r3, .L28+4
 371 0018 1860     		str	r0, [r3]
 372 001a 08BD     		pop	{r3, pc}
 373              	.L29:
 374              		.align	2
 375              	.L28:
 376 001c 00000000 		.word	cur_pos_right
 377 0020 00000000 		.word	cur_pos_left
 378              		.cfi_endproc
 379              	.LFE69:
 380              		.size	Get_Position, .-Get_Position
 381              		.section	.text.Get_Error,"ax",%progbits
 382              		.align	2
 383              		.global	Get_Error
 384              		.thumb
 385              		.thumb_func
 386              		.type	Get_Error, %function
 387              	Get_Error:
 388              	.LFB70:
ARM GAS  C:\Users\tadge\AppData\Local\Temp\cckLVLLS.s 			page 11


 183:movement.c    **** }
 184:movement.c    **** void Get_Error(){
 389              		.loc 1 184 0
 390              		.cfi_startproc
 391              		@ args = 0, pretend = 0, frame = 0
 392              		@ frame_needed = 0, uses_anonymous_args = 0
 393              		@ link register save eliminated.
 394 0000 10B4     		push	{r4}
 395              		.cfi_def_cfa_offset 4
 396              		.cfi_offset 4, -4
 185:movement.c    ****     error_left_prev = error_left;
 397              		.loc 1 185 0
 398 0002 0F4C     		ldr	r4, .L32
 399 0004 2268     		ldr	r2, [r4]
 400 0006 0F4B     		ldr	r3, .L32+4
 401 0008 1A60     		str	r2, [r3]
 186:movement.c    ****     error_right_prev = error_right;
 402              		.loc 1 186 0
 403 000a 0F49     		ldr	r1, .L32+8
 404 000c 0A68     		ldr	r2, [r1]
 405 000e 0F4B     		ldr	r3, .L32+12
 406 0010 1A60     		str	r2, [r3]
 187:movement.c    ****     
 188:movement.c    ****     error_left = cur_dest_left - cur_pos_left;
 407              		.loc 1 188 0
 408 0012 0F48     		ldr	r0, .L32+16
 409 0014 0368     		ldr	r3, [r0]
 410 0016 0F4A     		ldr	r2, .L32+20
 411 0018 1268     		ldr	r2, [r2]
 412 001a 9A1A     		subs	r2, r3, r2
 413 001c 2260     		str	r2, [r4]
 189:movement.c    ****     error_right = cur_dest_right - cur_pos_right;
 414              		.loc 1 189 0
 415 001e 4368     		ldr	r3, [r0, #4]
 416 0020 0D48     		ldr	r0, .L32+24
 417 0022 0068     		ldr	r0, [r0]
 418 0024 1B1A     		subs	r3, r3, r0
 419 0026 0B60     		str	r3, [r1]
 190:movement.c    ****     
 191:movement.c    ****     error_left_sum = error_left_sum + error_left;
 420              		.loc 1 191 0
 421 0028 0C48     		ldr	r0, .L32+28
 422 002a 0168     		ldr	r1, [r0]
 423 002c 0A44     		add	r2, r2, r1
 424 002e 0260     		str	r2, [r0]
 192:movement.c    ****     error_right_sum = error_right_sum + error_right;
 425              		.loc 1 192 0
 426 0030 0B49     		ldr	r1, .L32+32
 427 0032 0A68     		ldr	r2, [r1]
 428 0034 1344     		add	r3, r3, r2
 429 0036 0B60     		str	r3, [r1]
 193:movement.c    **** 
 194:movement.c    **** }
 430              		.loc 1 194 0
 431 0038 5DF8044B 		ldr	r4, [sp], #4
 432              		.cfi_restore 4
 433              		.cfi_def_cfa_offset 0
ARM GAS  C:\Users\tadge\AppData\Local\Temp\cckLVLLS.s 			page 12


 434 003c 7047     		bx	lr
 435              	.L33:
 436 003e 00BF     		.align	2
 437              	.L32:
 438 0040 00000000 		.word	error_left
 439 0044 00000000 		.word	error_left_prev
 440 0048 00000000 		.word	error_right
 441 004c 00000000 		.word	error_right_prev
 442 0050 00000000 		.word	.LANCHOR0
 443 0054 00000000 		.word	cur_pos_left
 444 0058 00000000 		.word	cur_pos_right
 445 005c 00000000 		.word	error_left_sum
 446 0060 00000000 		.word	error_right_sum
 447              		.cfi_endproc
 448              	.LFE70:
 449              		.size	Get_Error, .-Get_Error
 450              		.global	__aeabi_i2d
 451              		.global	__aeabi_dmul
 452              		.global	__aeabi_dadd
 453              		.global	__aeabi_d2iz
 454              		.section	.text.Get_PID,"ax",%progbits
 455              		.align	2
 456              		.global	Get_PID
 457              		.thumb
 458              		.thumb_func
 459              		.type	Get_PID, %function
 460              	Get_PID:
 461              	.LFB71:
 195:movement.c    **** 
 196:movement.c    **** void Get_PID(){   
 462              		.loc 1 196 0
 463              		.cfi_startproc
 464              		@ args = 0, pretend = 0, frame = 8
 465              		@ frame_needed = 0, uses_anonymous_args = 0
 466 0000 2DE9F04F 		push	{r4, r5, r6, r7, r8, r9, r10, fp, lr}
 467              		.cfi_def_cfa_offset 36
 468              		.cfi_offset 4, -36
 469              		.cfi_offset 5, -32
 470              		.cfi_offset 6, -28
 471              		.cfi_offset 7, -24
 472              		.cfi_offset 8, -20
 473              		.cfi_offset 9, -16
 474              		.cfi_offset 10, -12
 475              		.cfi_offset 11, -8
 476              		.cfi_offset 14, -4
 477 0004 83B0     		sub	sp, sp, #12
 478              		.cfi_def_cfa_offset 48
 197:movement.c    ****     volt_motor_left =  ( Kp * error_left ) + ( Ki * error_left_sum ) + ( Kd * (error_left - error_l
 479              		.loc 1 197 0
 480 0006 454B     		ldr	r3, .L40
 481 0008 D3F800A0 		ldr	r10, [r3]
 482 000c DFF830B1 		ldr	fp, .L40+36
 483 0010 DBE90067 		ldrd	r6, [fp]
 484 0014 5046     		mov	r0, r10
 485 0016 FFF7FEFF 		bl	__aeabi_i2d
 486              	.LVL30:
 487 001a 3246     		mov	r2, r6
ARM GAS  C:\Users\tadge\AppData\Local\Temp\cckLVLLS.s 			page 13


 488 001c 3B46     		mov	r3, r7
 489 001e FFF7FEFF 		bl	__aeabi_dmul
 490              	.LVL31:
 491 0022 8046     		mov	r8, r0
 492 0024 8946     		mov	r9, r1
 493 0026 DBE90445 		ldrd	r4, [fp, #16]
 494 002a 3D4B     		ldr	r3, .L40+4
 495 002c 1868     		ldr	r0, [r3]
 496 002e FFF7FEFF 		bl	__aeabi_i2d
 497              	.LVL32:
 498 0032 2246     		mov	r2, r4
 499 0034 2B46     		mov	r3, r5
 500 0036 FFF7FEFF 		bl	__aeabi_dmul
 501              	.LVL33:
 502 003a 0246     		mov	r2, r0
 503 003c 0B46     		mov	r3, r1
 504 003e 4046     		mov	r0, r8
 505 0040 4946     		mov	r1, r9
 506 0042 FFF7FEFF 		bl	__aeabi_dadd
 507              	.LVL34:
 508 0046 CDE90001 		strd	r0, [sp]
 509 004a 364B     		ldr	r3, .L40+8
 510 004c 1868     		ldr	r0, [r3]
 511 004e DBE90289 		ldrd	r8, [fp, #8]
 512 0052 C0EB0A00 		rsb	r0, r0, r10
 513 0056 FFF7FEFF 		bl	__aeabi_i2d
 514              	.LVL35:
 515 005a 4246     		mov	r2, r8
 516 005c 4B46     		mov	r3, r9
 517 005e FFF7FEFF 		bl	__aeabi_dmul
 518              	.LVL36:
 519 0062 0246     		mov	r2, r0
 520 0064 0B46     		mov	r3, r1
 521 0066 DDE90001 		ldrd	r0, [sp]
 522 006a FFF7FEFF 		bl	__aeabi_dadd
 523              	.LVL37:
 524 006e FFF7FEFF 		bl	__aeabi_d2iz
 525              	.LVL38:
 526 0072 2D4B     		ldr	r3, .L40+12
 527 0074 1860     		str	r0, [r3]
 198:movement.c    ****     //volt_motor_left =  adj_motor_left;
 199:movement.c    ****     
 200:movement.c    ****         if (volt_motor_left < -65535){
 528              		.loc 1 200 0
 529 0076 10F5803F 		cmn	r0, #65536
 530 007a 02DC     		bgt	.L35
 201:movement.c    ****             volt_motor_left = -65535;}
 531              		.loc 1 201 0
 532 007c 2B4A     		ldr	r2, .L40+16
 533 007e 1A60     		str	r2, [r3]
 534 0080 06E0     		b	.L36
 535              	.L35:
 202:movement.c    ****         else if (volt_motor_left > 65535){
 536              		.loc 1 202 0
 537 0082 B0F5803F 		cmp	r0, #65536
 538 0086 03DB     		blt	.L36
 203:movement.c    ****             volt_motor_left = 65535;}
ARM GAS  C:\Users\tadge\AppData\Local\Temp\cckLVLLS.s 			page 14


 539              		.loc 1 203 0
 540 0088 4FF6FF72 		movw	r2, #65535
 541 008c 264B     		ldr	r3, .L40+12
 542 008e 1A60     		str	r2, [r3]
 543              	.L36:
 204:movement.c    ****     
 205:movement.c    ****     volt_motor_right = ( Kp * error_right ) + ( Ki * error_right_sum ) + ( Kd * (error_right - erro
 544              		.loc 1 205 0
 545 0090 274B     		ldr	r3, .L40+20
 546 0092 D3F800A0 		ldr	r10, [r3]
 547 0096 5046     		mov	r0, r10
 548 0098 FFF7FEFF 		bl	__aeabi_i2d
 549              	.LVL39:
 550 009c 0246     		mov	r2, r0
 551 009e 0B46     		mov	r3, r1
 552 00a0 3046     		mov	r0, r6
 553 00a2 3946     		mov	r1, r7
 554 00a4 FFF7FEFF 		bl	__aeabi_dmul
 555              	.LVL40:
 556 00a8 0646     		mov	r6, r0
 557 00aa 0F46     		mov	r7, r1
 558 00ac 214B     		ldr	r3, .L40+24
 559 00ae 1868     		ldr	r0, [r3]
 560 00b0 FFF7FEFF 		bl	__aeabi_i2d
 561              	.LVL41:
 562 00b4 0246     		mov	r2, r0
 563 00b6 0B46     		mov	r3, r1
 564 00b8 2046     		mov	r0, r4
 565 00ba 2946     		mov	r1, r5
 566 00bc FFF7FEFF 		bl	__aeabi_dmul
 567              	.LVL42:
 568 00c0 0246     		mov	r2, r0
 569 00c2 0B46     		mov	r3, r1
 570 00c4 3046     		mov	r0, r6
 571 00c6 3946     		mov	r1, r7
 572 00c8 FFF7FEFF 		bl	__aeabi_dadd
 573              	.LVL43:
 574 00cc 0446     		mov	r4, r0
 575 00ce 0D46     		mov	r5, r1
 576 00d0 194B     		ldr	r3, .L40+28
 577 00d2 1868     		ldr	r0, [r3]
 578 00d4 C0EB0A00 		rsb	r0, r0, r10
 579 00d8 FFF7FEFF 		bl	__aeabi_i2d
 580              	.LVL44:
 581 00dc 0246     		mov	r2, r0
 582 00de 0B46     		mov	r3, r1
 583 00e0 4046     		mov	r0, r8
 584 00e2 4946     		mov	r1, r9
 585 00e4 FFF7FEFF 		bl	__aeabi_dmul
 586              	.LVL45:
 587 00e8 0246     		mov	r2, r0
 588 00ea 0B46     		mov	r3, r1
 589 00ec 2046     		mov	r0, r4
 590 00ee 2946     		mov	r1, r5
 591 00f0 FFF7FEFF 		bl	__aeabi_dadd
 592              	.LVL46:
 593 00f4 FFF7FEFF 		bl	__aeabi_d2iz
ARM GAS  C:\Users\tadge\AppData\Local\Temp\cckLVLLS.s 			page 15


 594              	.LVL47:
 595 00f8 104B     		ldr	r3, .L40+32
 596 00fa 1860     		str	r0, [r3]
 206:movement.c    ****     //volt_motor_right =  adj_motor_right;
 207:movement.c    ****     
 208:movement.c    ****         if (volt_motor_right < -65535){
 597              		.loc 1 208 0
 598 00fc 10F5803F 		cmn	r0, #65536
 599 0100 02DC     		bgt	.L37
 209:movement.c    ****             volt_motor_right = -65535;}
 600              		.loc 1 209 0
 601 0102 0A4A     		ldr	r2, .L40+16
 602 0104 1A60     		str	r2, [r3]
 603 0106 06E0     		b	.L34
 604              	.L37:
 210:movement.c    ****         else if (volt_motor_right > 65535){
 605              		.loc 1 210 0
 606 0108 B0F5803F 		cmp	r0, #65536
 607 010c 03DB     		blt	.L34
 211:movement.c    ****             volt_motor_right = 65535;}
 608              		.loc 1 211 0
 609 010e 4FF6FF72 		movw	r2, #65535
 610 0112 0A4B     		ldr	r3, .L40+32
 611 0114 1A60     		str	r2, [r3]
 612              	.L34:
 212:movement.c    **** }    
 613              		.loc 1 212 0
 614 0116 03B0     		add	sp, sp, #12
 615              		.cfi_def_cfa_offset 36
 616              		@ sp needed
 617 0118 BDE8F08F 		pop	{r4, r5, r6, r7, r8, r9, r10, fp, pc}
 618              	.L41:
 619              		.align	2
 620              	.L40:
 621 011c 00000000 		.word	error_left
 622 0120 00000000 		.word	error_left_sum
 623 0124 00000000 		.word	error_left_prev
 624 0128 00000000 		.word	volt_motor_left
 625 012c 0100FFFF 		.word	-65535
 626 0130 00000000 		.word	error_right
 627 0134 00000000 		.word	error_right_sum
 628 0138 00000000 		.word	error_right_prev
 629 013c 00000000 		.word	volt_motor_right
 630 0140 00000000 		.word	.LANCHOR1
 631              		.cfi_endproc
 632              	.LFE71:
 633              		.size	Get_PID, .-Get_PID
 634              		.section	.text.Adj_Volt,"ax",%progbits
 635              		.align	2
 636              		.global	Adj_Volt
 637              		.thumb
 638              		.thumb_func
 639              		.type	Adj_Volt, %function
 640              	Adj_Volt:
 641              	.LFB72:
 213:movement.c    **** void Adj_Volt(){
 642              		.loc 1 213 0
ARM GAS  C:\Users\tadge\AppData\Local\Temp\cckLVLLS.s 			page 16


 643              		.cfi_startproc
 644              		@ args = 0, pretend = 0, frame = 0
 645              		@ frame_needed = 0, uses_anonymous_args = 0
 646 0000 08B5     		push	{r3, lr}
 647              		.cfi_def_cfa_offset 8
 648              		.cfi_offset 3, -8
 649              		.cfi_offset 14, -4
 214:movement.c    ****     
 215:movement.c    ****     turn_wheel('l', volt_motor_left);
 650              		.loc 1 215 0
 651 0002 6C20     		movs	r0, #108
 652 0004 044B     		ldr	r3, .L44
 653 0006 1968     		ldr	r1, [r3]
 654 0008 FFF7FEFF 		bl	turn_wheel
 655              	.LVL48:
 216:movement.c    ****     turn_wheel('r', volt_motor_right);
 656              		.loc 1 216 0
 657 000c 7220     		movs	r0, #114
 658 000e 034B     		ldr	r3, .L44+4
 659 0010 1968     		ldr	r1, [r3]
 660 0012 FFF7FEFF 		bl	turn_wheel
 661              	.LVL49:
 662 0016 08BD     		pop	{r3, pc}
 663              	.L45:
 664              		.align	2
 665              	.L44:
 666 0018 00000000 		.word	volt_motor_left
 667 001c 00000000 		.word	volt_motor_right
 668              		.cfi_endproc
 669              	.LFE72:
 670              		.size	Adj_Volt, .-Adj_Volt
 671              		.section	.text.Check_Speed,"ax",%progbits
 672              		.align	2
 673              		.global	Check_Speed
 674              		.thumb
 675              		.thumb_func
 676              		.type	Check_Speed, %function
 677              	Check_Speed:
 678              	.LFB73:
 217:movement.c    **** }
 218:movement.c    **** 
 219:movement.c    **** void Check_Speed(){
 679              		.loc 1 219 0
 680              		.cfi_startproc
 681              		@ args = 0, pretend = 0, frame = 0
 682              		@ frame_needed = 0, uses_anonymous_args = 0
 683 0000 08B5     		push	{r3, lr}
 684              		.cfi_def_cfa_offset 8
 685              		.cfi_offset 3, -8
 686              		.cfi_offset 14, -4
 220:movement.c    ****     time_ms = time_ms + 1;
 687              		.loc 1 220 0
 688 0002 074A     		ldr	r2, .L48
 689 0004 1368     		ldr	r3, [r2]
 690 0006 0133     		adds	r3, r3, #1
 691 0008 1360     		str	r3, [r2]
 221:movement.c    ****     Get_Destination();  // update the destination
ARM GAS  C:\Users\tadge\AppData\Local\Temp\cckLVLLS.s 			page 17


 692              		.loc 1 221 0
 693 000a FFF7FEFF 		bl	Get_Destination
 694              	.LVL50:
 222:movement.c    ****     Get_Position();     // update the position
 695              		.loc 1 222 0
 696 000e FFF7FEFF 		bl	Get_Position
 697              	.LVL51:
 223:movement.c    ****     Get_Error();        // update the current and previous errors
 698              		.loc 1 223 0
 699 0012 FFF7FEFF 		bl	Get_Error
 700              	.LVL52:
 224:movement.c    ****     Get_PID();          // calculate the current voltages required
 701              		.loc 1 224 0
 702 0016 FFF7FEFF 		bl	Get_PID
 703              	.LVL53:
 225:movement.c    ****     Adj_Volt();      // update the speed of the wheVels
 704              		.loc 1 225 0
 705 001a FFF7FEFF 		bl	Adj_Volt
 706              	.LVL54:
 707 001e 08BD     		pop	{r3, pc}
 708              	.L49:
 709              		.align	2
 710              	.L48:
 711 0020 00000000 		.word	time_ms
 712              		.cfi_endproc
 713              	.LFE73:
 714              		.size	Check_Speed, .-Check_Speed
 715              		.section	.text.Print_Values,"ax",%progbits
 716              		.align	2
 717              		.global	Print_Values
 718              		.thumb
 719              		.thumb_func
 720              		.type	Print_Values, %function
 721              	Print_Values:
 722              	.LFB74:
 226:movement.c    ****     
 227:movement.c    **** }
 228:movement.c    **** 
 229:movement.c    **** void Print_Values(){
 723              		.loc 1 229 0
 724              		.cfi_startproc
 725              		@ args = 0, pretend = 0, frame = 0
 726              		@ frame_needed = 0, uses_anonymous_args = 0
 727 0000 10B5     		push	{r4, lr}
 728              		.cfi_def_cfa_offset 8
 729              		.cfi_offset 4, -8
 730              		.cfi_offset 14, -4
 731 0002 86B0     		sub	sp, sp, #24
 732              		.cfi_def_cfa_offset 32
 230:movement.c    ****     sprintf(mystring, "%d|%d|%ld|%ld|%ld|%d|%d|%d\n", error_left, volt_motor_left, cur_pos_left, cu
 733              		.loc 1 230 0
 734 0004 104B     		ldr	r3, .L52
 735 0006 1A68     		ldr	r2, [r3]
 736 0008 104C     		ldr	r4, .L52+4
 737 000a 114B     		ldr	r3, .L52+8
 738 000c 1B68     		ldr	r3, [r3]
 739 000e 1149     		ldr	r1, .L52+12
ARM GAS  C:\Users\tadge\AppData\Local\Temp\cckLVLLS.s 			page 18


 740 0010 0968     		ldr	r1, [r1]
 741 0012 0091     		str	r1, [sp]
 742 0014 1049     		ldr	r1, .L52+16
 743 0016 0968     		ldr	r1, [r1]
 744 0018 0191     		str	r1, [sp, #4]
 745 001a 1049     		ldr	r1, .L52+20
 746 001c 0968     		ldr	r1, [r1]
 747 001e 1048     		ldr	r0, .L52+24
 748 0020 0068     		ldr	r0, [r0]
 749 0022 091A     		subs	r1, r1, r0
 750 0024 0291     		str	r1, [sp, #8]
 751 0026 0392     		str	r2, [sp, #12]
 752 0028 0E49     		ldr	r1, .L52+28
 753 002a 0968     		ldr	r1, [r1]
 754 002c 511A     		subs	r1, r2, r1
 755 002e 0491     		str	r1, [sp, #16]
 756 0030 0D49     		ldr	r1, .L52+32
 757 0032 0968     		ldr	r1, [r1]
 758 0034 0591     		str	r1, [sp, #20]
 759 0036 2046     		mov	r0, r4
 760 0038 0C49     		ldr	r1, .L52+36
 761 003a FFF7FEFF 		bl	sprintf
 762              	.LVL55:
 231:movement.c    ****     UART_PutString(mystring);
 763              		.loc 1 231 0
 764 003e 2046     		mov	r0, r4
 765 0040 FFF7FEFF 		bl	UART_PutString
 766              	.LVL56:
 232:movement.c    ****     
 233:movement.c    ****     /*
 234:movement.c    ****     sprintf(mystring, "left error:%d     right error: %d\n", error_left, error_right);
 235:movement.c    ****     UART_PutString(mystring);
 236:movement.c    ****     sprintf(mystring, "left voltage:%d     right voltage: %d\n", volt_motor_left, volt_motor_right)
 237:movement.c    ****     UART_PutString(mystring);
 238:movement.c    ****     sprintf(mystring, "left position:%ld     right position: %ld\n", cur_pos_left, cur_pos_right);
 239:movement.c    ****     UART_PutString(mystring);
 240:movement.c    ****     sprintf(mystring, "left destination:%ld     right destination: %ld\n", cur_dest_left, cur_dest_
 241:movement.c    ****     UART_PutString(mystring);
 242:movement.c    ****     */
 243:movement.c    **** }
 767              		.loc 1 243 0
 768 0044 06B0     		add	sp, sp, #24
 769              		.cfi_def_cfa_offset 8
 770              		@ sp needed
 771 0046 10BD     		pop	{r4, pc}
 772              	.L53:
 773              		.align	2
 774              	.L52:
 775 0048 00000000 		.word	error_left
 776 004c 00000000 		.word	mystring
 777 0050 00000000 		.word	volt_motor_left
 778 0054 00000000 		.word	cur_pos_left
 779 0058 00000000 		.word	.LANCHOR0
 780 005c 00000000 		.word	time_ms
 781 0060 00000000 		.word	time_ms_start
 782 0064 00000000 		.word	error_left_prev
 783 0068 00000000 		.word	error_left_sum
ARM GAS  C:\Users\tadge\AppData\Local\Temp\cckLVLLS.s 			page 19


 784 006c 00000000 		.word	.LC0
 785              		.cfi_endproc
 786              	.LFE74:
 787              		.size	Print_Values, .-Print_Values
 788              		.comm	time_ms_start,4,4
 789              		.comm	time_ms,4,4
 790              		.comm	inc_right,4,4
 791              		.comm	inc_left,4,4
 792              		.comm	speed_right,4,4
 793              		.comm	speed_left,4,4
 794              		.global	Kd
 795              		.global	Ki
 796              		.global	Kp
 797              		.comm	distance_right,4,4
 798              		.comm	distance_left,4,4
 799              		.comm	error_right_sum,4,4
 800              		.comm	error_left_sum,4,4
 801              		.comm	error_right_prev,4,4
 802              		.comm	error_left_prev,4,4
 803              		.comm	error_right,4,4
 804              		.comm	error_left,4,4
 805              		.comm	adj_motor_right,4,4
 806              		.comm	adj_motor_left,4,4
 807              		.comm	volt_motor_right,4,4
 808              		.comm	volt_motor_left,4,4
 809              		.comm	last_pos_left,4,4
 810              		.comm	last_pos_right,4,4
 811              		.comm	cur_pos_right,4,4
 812              		.comm	cur_pos_left,4,4
 813              		.comm	prev_dest_left,4,4
 814              		.comm	prev_dest_right,4,4
 815              		.global	cur_dest_right
 816              		.global	cur_dest_left
 817              		.comm	mystring,50,4
 818              		.data
 819              		.align	3
 820              		.set	.LANCHOR1,. + 0
 821              		.type	Kp, %object
 822              		.size	Kp, 8
 823              	Kp:
 824 0000 00000000 		.word	0
 825 0004 00005940 		.word	1079574528
 826              		.type	Kd, %object
 827              		.size	Kd, 8
 828              	Kd:
 829 0008 00000000 		.word	0
 830 000c 00408F40 		.word	1083129856
 831              		.type	Ki, %object
 832              		.size	Ki, 8
 833              	Ki:
 834 0010 9A999999 		.word	-1717986918
 835 0014 9999B93F 		.word	1069128089
 836              		.section	.rodata.str1.4,"aMS",%progbits,1
 837              		.align	2
 838              	.LC0:
 839 0000 25647C25 		.ascii	"%d|%d|%ld|%ld|%ld|%d|%d|%d\012\000"
 839      647C256C 
ARM GAS  C:\Users\tadge\AppData\Local\Temp\cckLVLLS.s 			page 20


 839      647C256C 
 839      647C256C 
 839      647C2564 
 840              		.bss
 841              		.align	2
 842              		.set	.LANCHOR0,. + 0
 843              		.type	cur_dest_left, %object
 844              		.size	cur_dest_left, 4
 845              	cur_dest_left:
 846 0000 00000000 		.space	4
 847              		.type	cur_dest_right, %object
 848              		.size	cur_dest_right, 4
 849              	cur_dest_right:
 850 0004 00000000 		.space	4
 851              		.text
 852              	.Letext0:
 853              		.file 2 "c:\\program files (x86)\\cypress\\psoc creator\\4.0\\psoc creator\\import\\gnu\\arm\\4.9.
 854              		.file 3 "c:\\program files (x86)\\cypress\\psoc creator\\4.0\\psoc creator\\import\\gnu\\arm\\4.9.
 855              		.file 4 "Generated_Source\\PSoC5/cytypes.h"
 856              		.file 5 "Generated_Source\\PSoC5/core_cm3.h"
 857              		.file 6 "Generated_Source\\PSoC5/Standby.h"
 858              		.file 7 "Generated_Source\\PSoC5/PWM_M2.h"
 859              		.file 8 "Generated_Source\\PSoC5/M2_FWD.h"
 860              		.file 9 "Generated_Source\\PSoC5/M2_BWD.h"
 861              		.file 10 "Generated_Source\\PSoC5/PWM_M1.h"
 862              		.file 11 "Generated_Source\\PSoC5/M1_FWD.h"
 863              		.file 12 "Generated_Source\\PSoC5/M1_BWD.h"
 864              		.file 13 "Generated_Source\\PSoC5/M2QuadDec.h"
 865              		.file 14 "Generated_Source\\PSoC5/M1QuadDec.h"
 866              		.file 15 "Generated_Source\\PSoC5/UART.h"
 867              		.file 16 "c:\\program files (x86)\\cypress\\psoc creator\\4.0\\psoc creator\\import\\gnu\\arm\\4.9