ARM GAS  C:\Users\tadge\AppData\Local\Temp\ccQx12jg.s 			page 1


   1              		.syntax unified
   2              		.cpu cortex-m3
   3              		.fpu softvfp
   4              		.eabi_attribute 20, 1
   5              		.eabi_attribute 21, 1
   6              		.eabi_attribute 23, 3
   7              		.eabi_attribute 24, 1
   8              		.eabi_attribute 25, 1
   9              		.eabi_attribute 26, 1
  10              		.eabi_attribute 30, 1
  11              		.eabi_attribute 34, 1
  12              		.eabi_attribute 18, 4
  13              		.thumb
  14              		.file	"serial.c"
  15              		.text
  16              	.Ltext0:
  17              		.cfi_sections	.debug_frame
  18              		.section	.text.get_serial_speed,"ax",%progbits
  19              		.align	2
  20              		.global	get_serial_speed
  21              		.thumb
  22              		.thumb_func
  23              		.type	get_serial_speed, %function
  24              	get_serial_speed:
  25              	.LFB63:
  26              		.file 1 "serial.c"
   1:serial.c      **** /* ========================================
   2:serial.c      ****  *
   3:serial.c      ****  * Copyright YOUR COMPANY, THE YEAR
   4:serial.c      ****  * All Rights Reserved
   5:serial.c      ****  * UNPUBLISHED, LICENSED SOFTWARE.
   6:serial.c      ****  *
   7:serial.c      ****  * CONFIDENTIAL AND PROPRIETARY INFORMATION
   8:serial.c      ****  * WHICH IS THE PROPERTY OF your company.
   9:serial.c      ****  *
  10:serial.c      ****  * ========================================
  11:serial.c      **** */
  12:serial.c      **** #include "project.h"
  13:serial.c      **** #include <math.h>
  14:serial.c      **** #include <stdio.h>
  15:serial.c      **** #include <stdint.h>
  16:serial.c      **** #include <stdlib.h>
  17:serial.c      **** #include <time.h>
  18:serial.c      ****  
  19:serial.c      ****  int i;
  20:serial.c      **** 
  21:serial.c      ****  char buffer[UART_RXBUFFERSIZE];
  22:serial.c      ****  uint8 trigger;
  23:serial.c      **** 
  24:serial.c      **** void get_serial_speed(int *int1, int *int2){
  27              		.loc 1 24 0
  28              		.cfi_startproc
  29              		@ args = 0, pretend = 0, frame = 0
  30              		@ frame_needed = 0, uses_anonymous_args = 0
  31              	.LVL0:
  32 0000 2DE9F041 		push	{r4, r5, r6, r7, r8, lr}
  33              		.cfi_def_cfa_offset 24
ARM GAS  C:\Users\tadge\AppData\Local\Temp\ccQx12jg.s 			page 2


  34              		.cfi_offset 4, -24
  35              		.cfi_offset 5, -20
  36              		.cfi_offset 6, -16
  37              		.cfi_offset 7, -12
  38              		.cfi_offset 8, -8
  39              		.cfi_offset 14, -4
  40 0004 0546     		mov	r5, r0
  41 0006 0E46     		mov	r6, r1
  42              	.LVL1:
  25:serial.c      ****     int counter=0;
  26:serial.c      ****     UART_ClearRxBuffer();
  43              		.loc 1 26 0
  44 0008 FFF7FEFF 		bl	UART_ClearRxBuffer
  45              	.LVL2:
  25:serial.c      ****     int counter=0;
  46              		.loc 1 25 0
  47 000c 0024     		movs	r4, #0
  27:serial.c      ****     while(counter<2){
  48              		.loc 1 27 0
  49 000e 47E0     		b	.L5
  50              	.LVL3:
  51              	.L8:
  28:serial.c      ****         if ((0u != UART_ReadRxStatus())||(0u != UART_GetRxBufferSize()))
  52              		.loc 1 28 0
  53 0010 FFF7FEFF 		bl	UART_ReadRxStatus
  54              	.LVL4:
  55 0014 10B9     		cbnz	r0, .L3
  56              		.loc 1 28 0 is_stmt 0 discriminator 1
  57 0016 FFF7FEFF 		bl	UART_GetRxBufferSize
  58              	.LVL5:
  59 001a 10B1     		cbz	r0, .L4
  60              	.L3:
  29:serial.c      ****             {trigger=1;}
  61              		.loc 1 29 0 is_stmt 1
  62 001c 0122     		movs	r2, #1
  63 001e 224B     		ldr	r3, .L10
  64 0020 1A70     		strb	r2, [r3]
  65              	.L4:
  30:serial.c      ****         if (0u != trigger)
  66              		.loc 1 30 0
  67 0022 214B     		ldr	r3, .L10
  68 0024 1B78     		ldrb	r3, [r3]	@ zero_extendqisi2
  69 0026 002B     		cmp	r3, #0
  70 0028 3AD0     		beq	.L5
  31:serial.c      ****         {
  32:serial.c      ****             CyDelay(10);
  71              		.loc 1 32 0
  72 002a 0A20     		movs	r0, #10
  73 002c FFF7FEFF 		bl	CyDelay
  74              	.LVL6:
  33:serial.c      ****             strncpy(buffer, (const char *)UART_rxBuffer, UART_RXBUFFERSIZE);
  75              		.loc 1 33 0
  76 0030 1E48     		ldr	r0, .L10+4
  77 0032 1F49     		ldr	r1, .L10+8
  78 0034 4FF48062 		mov	r2, #1024
  79 0038 FFF7FEFF 		bl	strncpy
  80              	.LVL7:
ARM GAS  C:\Users\tadge\AppData\Local\Temp\ccQx12jg.s 			page 3


  34:serial.c      ****             if (counter==0)
  81              		.loc 1 34 0
  82 003c ACB9     		cbnz	r4, .L6
  83              	.LBB2:
  35:serial.c      ****                 {
  36:serial.c      ****                     
  37:serial.c      ****                     char str[100];
  38:serial.c      ****                     *int1=atoi(buffer);
  84              		.loc 1 38 0
  85 003e DFF86C80 		ldr	r8, .L10+4
  86 0042 4046     		mov	r0, r8
  87 0044 FFF7FEFF 		bl	atoi
  88              	.LVL8:
  89 0048 2860     		str	r0, [r5]
  39:serial.c      ****                     //sprintf(str,"Recieved 1st [%i] \n",*int1);
  40:serial.c      ****                     //UART_PutString(str);
  41:serial.c      ****    
  42:serial.c      ****                     UART_ClearRxBuffer();
  90              		.loc 1 42 0
  91 004a FFF7FEFF 		bl	UART_ClearRxBuffer
  92              	.LVL9:
  43:serial.c      ****                     strncpy((char *)UART_rxBuffer,"",sizeof(UART_rxBuffer));
  93              		.loc 1 43 0
  94 004e 194F     		ldr	r7, .L10+12
  95 0050 1748     		ldr	r0, .L10+8
  96 0052 3946     		mov	r1, r7
  97 0054 4FF48062 		mov	r2, #1024
  98 0058 FFF7FEFF 		bl	strncpy
  99              	.LVL10:
  44:serial.c      ****                     strncpy(buffer,"",sizeof(buffer));
 100              		.loc 1 44 0
 101 005c 4046     		mov	r0, r8
 102 005e 3946     		mov	r1, r7
 103 0060 4FF48062 		mov	r2, #1024
 104 0064 FFF7FEFF 		bl	strncpy
 105              	.LVL11:
 106              	.LBE2:
 107 0068 16E0     		b	.L7
 108              	.L6:
  45:serial.c      ****                     
  46:serial.c      ****                 }
  47:serial.c      ****              else if(counter==1)
 109              		.loc 1 47 0
 110 006a 012C     		cmp	r4, #1
 111 006c 14D1     		bne	.L7
 112              	.LBB3:
  48:serial.c      ****                 {
  49:serial.c      ****                     
  50:serial.c      ****                     char str[100];
  51:serial.c      ****                     *int2=atoi(buffer);
 113              		.loc 1 51 0
 114 006e DFF83C80 		ldr	r8, .L10+4
 115 0072 4046     		mov	r0, r8
 116 0074 FFF7FEFF 		bl	atoi
 117              	.LVL12:
 118 0078 3060     		str	r0, [r6]
  52:serial.c      ****                     //sprintf(str,"Recieved 2nd [%i] \n",*int2);
ARM GAS  C:\Users\tadge\AppData\Local\Temp\ccQx12jg.s 			page 4


  53:serial.c      ****                     //UART_PutString(str);
  54:serial.c      ****    
  55:serial.c      ****                     UART_ClearRxBuffer();
 119              		.loc 1 55 0
 120 007a FFF7FEFF 		bl	UART_ClearRxBuffer
 121              	.LVL13:
  56:serial.c      ****                     strncpy((char *)UART_rxBuffer,"",sizeof(UART_rxBuffer));
 122              		.loc 1 56 0
 123 007e 0D4F     		ldr	r7, .L10+12
 124 0080 0B48     		ldr	r0, .L10+8
 125 0082 3946     		mov	r1, r7
 126 0084 4FF48062 		mov	r2, #1024
 127 0088 FFF7FEFF 		bl	strncpy
 128              	.LVL14:
  57:serial.c      ****                     strncpy(buffer,"",sizeof(buffer));
 129              		.loc 1 57 0
 130 008c 4046     		mov	r0, r8
 131 008e 3946     		mov	r1, r7
 132 0090 4FF48062 		mov	r2, #1024
 133 0094 FFF7FEFF 		bl	strncpy
 134              	.LVL15:
 135              	.L7:
 136              	.LBE3:
  58:serial.c      ****                     
  59:serial.c      ****                 }
  60:serial.c      ****                 trigger=0;
 137              		.loc 1 60 0
 138 0098 0022     		movs	r2, #0
 139 009a 034B     		ldr	r3, .L10
 140 009c 1A70     		strb	r2, [r3]
  61:serial.c      ****                 counter=counter+1;
 141              		.loc 1 61 0
 142 009e 0134     		adds	r4, r4, #1
 143              	.LVL16:
 144              	.L5:
  27:serial.c      ****         if ((0u != UART_ReadRxStatus())||(0u != UART_GetRxBufferSize()))
 145              		.loc 1 27 0
 146 00a0 012C     		cmp	r4, #1
 147 00a2 B5DD     		ble	.L8
  62:serial.c      ****         }
  63:serial.c      **** 
  64:serial.c      ****     }
  65:serial.c      **** }
 148              		.loc 1 65 0
 149 00a4 BDE8F081 		pop	{r4, r5, r6, r7, r8, pc}
 150              	.LVL17:
 151              	.L11:
 152              		.align	2
 153              	.L10:
 154 00a8 00000000 		.word	trigger
 155 00ac 00000000 		.word	buffer
 156 00b0 00000000 		.word	UART_rxBuffer
 157 00b4 00000000 		.word	.LC0
 158              		.cfi_endproc
 159              	.LFE63:
 160              		.size	get_serial_speed, .-get_serial_speed
 161              		.section	.text.get_serial_control,"ax",%progbits
ARM GAS  C:\Users\tadge\AppData\Local\Temp\ccQx12jg.s 			page 5


 162              		.align	2
 163              		.global	get_serial_control
 164              		.thumb
 165              		.thumb_func
 166              		.type	get_serial_control, %function
 167              	get_serial_control:
 168              	.LFB64:
  66:serial.c      **** 
  67:serial.c      **** void get_serial_control(double *int1, double *int2, double *int3){
 169              		.loc 1 67 0
 170              		.cfi_startproc
 171              		@ args = 0, pretend = 0, frame = 0
 172              		@ frame_needed = 0, uses_anonymous_args = 0
 173              	.LVL18:
 174 0000 2DE9F843 		push	{r3, r4, r5, r6, r7, r8, r9, lr}
 175              		.cfi_def_cfa_offset 32
 176              		.cfi_offset 3, -32
 177              		.cfi_offset 4, -28
 178              		.cfi_offset 5, -24
 179              		.cfi_offset 6, -20
 180              		.cfi_offset 7, -16
 181              		.cfi_offset 8, -12
 182              		.cfi_offset 9, -8
 183              		.cfi_offset 14, -4
 184 0004 0546     		mov	r5, r0
 185 0006 0E46     		mov	r6, r1
 186 0008 1746     		mov	r7, r2
 187              	.LVL19:
  68:serial.c      ****     int counter=0;
  69:serial.c      ****     UART_ClearRxBuffer();
 188              		.loc 1 69 0
 189 000a FFF7FEFF 		bl	UART_ClearRxBuffer
 190              	.LVL20:
  68:serial.c      ****     int counter=0;
 191              		.loc 1 68 0
 192 000e 0024     		movs	r4, #0
  70:serial.c      ****     while(counter<3){
 193              		.loc 1 70 0
 194 0010 65E0     		b	.L16
 195              	.LVL21:
 196              	.L20:
  71:serial.c      ****         if ((0u != UART_ReadRxStatus())||(0u != UART_GetRxBufferSize()))
 197              		.loc 1 71 0
 198 0012 FFF7FEFF 		bl	UART_ReadRxStatus
 199              	.LVL22:
 200 0016 10B9     		cbnz	r0, .L14
 201              		.loc 1 71 0 is_stmt 0 discriminator 1
 202 0018 FFF7FEFF 		bl	UART_GetRxBufferSize
 203              	.LVL23:
 204 001c 10B1     		cbz	r0, .L15
 205              	.L14:
  72:serial.c      ****             {trigger=1;}
 206              		.loc 1 72 0 is_stmt 1
 207 001e 0122     		movs	r2, #1
 208 0020 314B     		ldr	r3, .L22
 209 0022 1A70     		strb	r2, [r3]
 210              	.L15:
ARM GAS  C:\Users\tadge\AppData\Local\Temp\ccQx12jg.s 			page 6


  73:serial.c      ****                 if (0u != trigger)
 211              		.loc 1 73 0
 212 0024 304B     		ldr	r3, .L22
 213 0026 1B78     		ldrb	r3, [r3]	@ zero_extendqisi2
 214 0028 002B     		cmp	r3, #0
 215 002a 58D0     		beq	.L16
  74:serial.c      ****                 {
  75:serial.c      ****                     CyDelay(10);
 216              		.loc 1 75 0
 217 002c 0A20     		movs	r0, #10
 218 002e FFF7FEFF 		bl	CyDelay
 219              	.LVL24:
  76:serial.c      ****                     strncpy(buffer, (const char *)UART_rxBuffer, UART_RXBUFFERSIZE);
 220              		.loc 1 76 0
 221 0032 2E48     		ldr	r0, .L22+4
 222 0034 2E49     		ldr	r1, .L22+8
 223 0036 4FF48062 		mov	r2, #1024
 224 003a FFF7FEFF 		bl	strncpy
 225              	.LVL25:
  77:serial.c      ****                     if (counter==0)
 226              		.loc 1 77 0
 227 003e BCB9     		cbnz	r4, .L17
 228              	.LBB4:
  78:serial.c      ****                         {
  79:serial.c      ****                             
  80:serial.c      ****                             char str[100];
  81:serial.c      ****                             *int1=atof(buffer);
 229              		.loc 1 81 0
 230 0040 DFF8A890 		ldr	r9, .L22+4
 231 0044 4846     		mov	r0, r9
 232 0046 FFF7FEFF 		bl	atof
 233              	.LVL26:
 234 004a C5E90001 		strd	r0, [r5]
  82:serial.c      ****                             //sprintf(str,"Recieved 1st [%f] \n",*int1);
  83:serial.c      ****                             //UART_PutString(str);
  84:serial.c      ****            
  85:serial.c      ****                             UART_ClearRxBuffer();
 235              		.loc 1 85 0
 236 004e FFF7FEFF 		bl	UART_ClearRxBuffer
 237              	.LVL27:
  86:serial.c      ****                             strncpy((char *)UART_rxBuffer,"",sizeof(UART_rxBuffer));
 238              		.loc 1 86 0
 239 0052 DFF8A080 		ldr	r8, .L22+12
 240 0056 2648     		ldr	r0, .L22+8
 241 0058 4146     		mov	r1, r8
 242 005a 4FF48062 		mov	r2, #1024
 243 005e FFF7FEFF 		bl	strncpy
 244              	.LVL28:
  87:serial.c      ****                             strncpy(buffer,"",sizeof(buffer));
 245              		.loc 1 87 0
 246 0062 4846     		mov	r0, r9
 247 0064 4146     		mov	r1, r8
 248 0066 4FF48062 		mov	r2, #1024
 249 006a FFF7FEFF 		bl	strncpy
 250              	.LVL29:
 251              	.LBE4:
 252 006e 32E0     		b	.L18
ARM GAS  C:\Users\tadge\AppData\Local\Temp\ccQx12jg.s 			page 7


 253              	.L17:
  88:serial.c      ****                             
  89:serial.c      ****                         }
  90:serial.c      ****                      else if(counter==1)
 254              		.loc 1 90 0
 255 0070 012C     		cmp	r4, #1
 256 0072 17D1     		bne	.L19
 257              	.LBB5:
  91:serial.c      ****                         {
  92:serial.c      ****                             
  93:serial.c      ****                             char str[100];
  94:serial.c      ****                             *int2=atof(buffer);
 258              		.loc 1 94 0
 259 0074 DFF87490 		ldr	r9, .L22+4
 260 0078 4846     		mov	r0, r9
 261 007a FFF7FEFF 		bl	atof
 262              	.LVL30:
 263 007e C6E90001 		strd	r0, [r6]
  95:serial.c      ****                             //sprintf(str,"Recieved 2nd [%f] \n",*int2);
  96:serial.c      ****                             //UART_PutString(str);
  97:serial.c      ****            
  98:serial.c      ****                             UART_ClearRxBuffer();
 264              		.loc 1 98 0
 265 0082 FFF7FEFF 		bl	UART_ClearRxBuffer
 266              	.LVL31:
  99:serial.c      ****                             strncpy((char *)UART_rxBuffer,"",sizeof(UART_rxBuffer));
 267              		.loc 1 99 0
 268 0086 DFF86C80 		ldr	r8, .L22+12
 269 008a 1948     		ldr	r0, .L22+8
 270 008c 4146     		mov	r1, r8
 271 008e 4FF48062 		mov	r2, #1024
 272 0092 FFF7FEFF 		bl	strncpy
 273              	.LVL32:
 100:serial.c      ****                             strncpy(buffer,"",sizeof(buffer));
 274              		.loc 1 100 0
 275 0096 4846     		mov	r0, r9
 276 0098 4146     		mov	r1, r8
 277 009a 4FF48062 		mov	r2, #1024
 278 009e FFF7FEFF 		bl	strncpy
 279              	.LVL33:
 280              	.LBE5:
 281 00a2 18E0     		b	.L18
 282              	.L19:
 101:serial.c      ****                             
 102:serial.c      ****                         }
 103:serial.c      ****                     else if(counter==2)
 283              		.loc 1 103 0
 284 00a4 022C     		cmp	r4, #2
 285 00a6 16D1     		bne	.L18
 286              	.LBB6:
 104:serial.c      ****                         {
 105:serial.c      ****                             
 106:serial.c      ****                             char str[100];
 107:serial.c      ****                             *int3=atof(buffer);
 287              		.loc 1 107 0
 288 00a8 DFF84090 		ldr	r9, .L22+4
 289 00ac 4846     		mov	r0, r9
ARM GAS  C:\Users\tadge\AppData\Local\Temp\ccQx12jg.s 			page 8


 290 00ae FFF7FEFF 		bl	atof
 291              	.LVL34:
 292 00b2 C7E90001 		strd	r0, [r7]
 108:serial.c      ****                             //sprintf(str,"Recieved 3rd [%f] \n",*int3);
 109:serial.c      ****                             //UART_PutString(str);
 110:serial.c      ****            
 111:serial.c      ****                             UART_ClearRxBuffer();
 293              		.loc 1 111 0
 294 00b6 FFF7FEFF 		bl	UART_ClearRxBuffer
 295              	.LVL35:
 112:serial.c      ****                             strncpy((char *)UART_rxBuffer,"",sizeof(UART_rxBuffer));
 296              		.loc 1 112 0
 297 00ba DFF83880 		ldr	r8, .L22+12
 298 00be 0C48     		ldr	r0, .L22+8
 299 00c0 4146     		mov	r1, r8
 300 00c2 4FF48062 		mov	r2, #1024
 301 00c6 FFF7FEFF 		bl	strncpy
 302              	.LVL36:
 113:serial.c      ****                             strncpy(buffer,"",sizeof(buffer));
 303              		.loc 1 113 0
 304 00ca 4846     		mov	r0, r9
 305 00cc 4146     		mov	r1, r8
 306 00ce 4FF48062 		mov	r2, #1024
 307 00d2 FFF7FEFF 		bl	strncpy
 308              	.LVL37:
 309              	.L18:
 310              	.LBE6:
 114:serial.c      ****                             
 115:serial.c      ****                         }    
 116:serial.c      ****                         trigger=0;
 311              		.loc 1 116 0
 312 00d6 0022     		movs	r2, #0
 313 00d8 034B     		ldr	r3, .L22
 314 00da 1A70     		strb	r2, [r3]
 117:serial.c      ****                         counter=counter+1;
 315              		.loc 1 117 0
 316 00dc 0134     		adds	r4, r4, #1
 317              	.LVL38:
 318              	.L16:
  70:serial.c      ****         if ((0u != UART_ReadRxStatus())||(0u != UART_GetRxBufferSize()))
 319              		.loc 1 70 0
 320 00de 022C     		cmp	r4, #2
 321 00e0 97DD     		ble	.L20
 118:serial.c      ****                 }
 119:serial.c      **** 
 120:serial.c      ****     }
 121:serial.c      **** }
 322              		.loc 1 121 0
 323 00e2 BDE8F883 		pop	{r3, r4, r5, r6, r7, r8, r9, pc}
 324              	.LVL39:
 325              	.L23:
 326 00e6 00BF     		.align	2
 327              	.L22:
 328 00e8 00000000 		.word	trigger
 329 00ec 00000000 		.word	buffer
 330 00f0 00000000 		.word	UART_rxBuffer
 331 00f4 00000000 		.word	.LC0
ARM GAS  C:\Users\tadge\AppData\Local\Temp\ccQx12jg.s 			page 9


 332              		.cfi_endproc
 333              	.LFE64:
 334              		.size	get_serial_control, .-get_serial_control
 335              		.section	.text.get_serial_update,"ax",%progbits
 336              		.align	2
 337              		.global	get_serial_update
 338              		.thumb
 339              		.thumb_func
 340              		.type	get_serial_update, %function
 341              	get_serial_update:
 342              	.LFB65:
 122:serial.c      **** 
 123:serial.c      **** int get_serial_update(int *int1){
 343              		.loc 1 123 0
 344              		.cfi_startproc
 345              		@ args = 0, pretend = 0, frame = 0
 346              		@ frame_needed = 0, uses_anonymous_args = 0
 347              	.LVL40:
 348 0000 F8B5     		push	{r3, r4, r5, r6, r7, lr}
 349              		.cfi_def_cfa_offset 24
 350              		.cfi_offset 3, -24
 351              		.cfi_offset 4, -20
 352              		.cfi_offset 5, -16
 353              		.cfi_offset 6, -12
 354              		.cfi_offset 7, -8
 355              		.cfi_offset 14, -4
 356 0002 0546     		mov	r5, r0
 357              	.LVL41:
 124:serial.c      ****     int counter=0;
 125:serial.c      ****     UART_ClearRxBuffer();
 358              		.loc 1 125 0
 359 0004 FFF7FEFF 		bl	UART_ClearRxBuffer
 360              	.LVL42:
 124:serial.c      ****     int counter=0;
 361              		.loc 1 124 0
 362 0008 0024     		movs	r4, #0
 126:serial.c      ****     while(counter<1){
 363              		.loc 1 126 0
 364 000a 2DE0     		b	.L28
 365              	.LVL43:
 366              	.L30:
 127:serial.c      ****         if ((0u != UART_ReadRxStatus())||(0u != UART_GetRxBufferSize()))
 367              		.loc 1 127 0
 368 000c FFF7FEFF 		bl	UART_ReadRxStatus
 369              	.LVL44:
 370 0010 10B9     		cbnz	r0, .L26
 371              		.loc 1 127 0 is_stmt 0 discriminator 1
 372 0012 FFF7FEFF 		bl	UART_GetRxBufferSize
 373              	.LVL45:
 374 0016 10B1     		cbz	r0, .L27
 375              	.L26:
 128:serial.c      ****             {trigger=1;}
 376              		.loc 1 128 0 is_stmt 1
 377 0018 0122     		movs	r2, #1
 378 001a 154B     		ldr	r3, .L32
 379 001c 1A70     		strb	r2, [r3]
 380              	.L27:
ARM GAS  C:\Users\tadge\AppData\Local\Temp\ccQx12jg.s 			page 10


 129:serial.c      ****                 if (0u != trigger)
 381              		.loc 1 129 0
 382 001e 144B     		ldr	r3, .L32
 383 0020 1B78     		ldrb	r3, [r3]	@ zero_extendqisi2
 384 0022 0BB3     		cbz	r3, .L28
 130:serial.c      ****                 {
 131:serial.c      ****                     CyDelay(10);
 385              		.loc 1 131 0
 386 0024 0A20     		movs	r0, #10
 387 0026 FFF7FEFF 		bl	CyDelay
 388              	.LVL46:
 132:serial.c      ****                     strncpy(buffer, (const char *)UART_rxBuffer, UART_RXBUFFERSIZE);
 389              		.loc 1 132 0
 390 002a 1248     		ldr	r0, .L32+4
 391 002c 1249     		ldr	r1, .L32+8
 392 002e 4FF48062 		mov	r2, #1024
 393 0032 FFF7FEFF 		bl	strncpy
 394              	.LVL47:
 133:serial.c      ****                     if (counter==0)
 395              		.loc 1 133 0
 396 0036 9CB9     		cbnz	r4, .L29
 397              	.LBB7:
 134:serial.c      ****                         {
 135:serial.c      ****                             
 136:serial.c      ****                             char str[100];
 137:serial.c      ****                             *int1=atoi(buffer);
 398              		.loc 1 137 0
 399 0038 0E4F     		ldr	r7, .L32+4
 400 003a 3846     		mov	r0, r7
 401 003c FFF7FEFF 		bl	atoi
 402              	.LVL48:
 403 0040 2860     		str	r0, [r5]
 138:serial.c      ****                             //sprintf(str,"Recieved 1st [%i] \n",*int1);
 139:serial.c      ****                             //UART_PutString(str);
 140:serial.c      ****            
 141:serial.c      ****                             UART_ClearRxBuffer();
 404              		.loc 1 141 0
 405 0042 FFF7FEFF 		bl	UART_ClearRxBuffer
 406              	.LVL49:
 142:serial.c      ****                             strncpy((char *)UART_rxBuffer,"",sizeof(UART_rxBuffer));
 407              		.loc 1 142 0
 408 0046 0D4E     		ldr	r6, .L32+12
 409 0048 0B48     		ldr	r0, .L32+8
 410 004a 3146     		mov	r1, r6
 411 004c 4FF48062 		mov	r2, #1024
 412 0050 FFF7FEFF 		bl	strncpy
 413              	.LVL50:
 143:serial.c      ****                             strncpy(buffer,"",sizeof(buffer));
 414              		.loc 1 143 0
 415 0054 3846     		mov	r0, r7
 416 0056 3146     		mov	r1, r6
 417 0058 4FF48062 		mov	r2, #1024
 418 005c FFF7FEFF 		bl	strncpy
 419              	.LVL51:
 420              	.L29:
 421              	.LBE7:
 144:serial.c      ****                             
ARM GAS  C:\Users\tadge\AppData\Local\Temp\ccQx12jg.s 			page 11


 145:serial.c      ****                         }
 146:serial.c      ****                     
 147:serial.c      ****                         trigger=0;
 422              		.loc 1 147 0
 423 0060 0022     		movs	r2, #0
 424 0062 034B     		ldr	r3, .L32
 425 0064 1A70     		strb	r2, [r3]
 148:serial.c      ****                         counter=counter+1;
 426              		.loc 1 148 0
 427 0066 0134     		adds	r4, r4, #1
 428              	.LVL52:
 429              	.L28:
 126:serial.c      ****         if ((0u != UART_ReadRxStatus())||(0u != UART_GetRxBufferSize()))
 430              		.loc 1 126 0
 431 0068 002C     		cmp	r4, #0
 432 006a CFDD     		ble	.L30
 149:serial.c      ****                 }
 150:serial.c      ****     }
 151:serial.c      ****     return 0;
 152:serial.c      **** 
 153:serial.c      **** 
 154:serial.c      **** 
 155:serial.c      **** 
 156:serial.c      **** }
 433              		.loc 1 156 0
 434 006c 0020     		movs	r0, #0
 435 006e F8BD     		pop	{r3, r4, r5, r6, r7, pc}
 436              	.LVL53:
 437              	.L33:
 438              		.align	2
 439              	.L32:
 440 0070 00000000 		.word	trigger
 441 0074 00000000 		.word	buffer
 442 0078 00000000 		.word	UART_rxBuffer
 443 007c 00000000 		.word	.LC0
 444              		.cfi_endproc
 445              	.LFE65:
 446              		.size	get_serial_update, .-get_serial_update
 447              		.section	.text.get_serial_update2,"ax",%progbits
 448              		.align	2
 449              		.global	get_serial_update2
 450              		.thumb
 451              		.thumb_func
 452              		.type	get_serial_update2, %function
 453              	get_serial_update2:
 454              	.LFB66:
 157:serial.c      **** 
 158:serial.c      **** 
 159:serial.c      **** int get_serial_update2(long int *int1){
 455              		.loc 1 159 0
 456              		.cfi_startproc
 457              		@ args = 0, pretend = 0, frame = 0
 458              		@ frame_needed = 0, uses_anonymous_args = 0
 459              	.LVL54:
 460 0000 F8B5     		push	{r3, r4, r5, r6, r7, lr}
 461              		.cfi_def_cfa_offset 24
 462              		.cfi_offset 3, -24
ARM GAS  C:\Users\tadge\AppData\Local\Temp\ccQx12jg.s 			page 12


 463              		.cfi_offset 4, -20
 464              		.cfi_offset 5, -16
 465              		.cfi_offset 6, -12
 466              		.cfi_offset 7, -8
 467              		.cfi_offset 14, -4
 468 0002 0546     		mov	r5, r0
 469              	.LVL55:
 160:serial.c      ****     int counter=0;
 161:serial.c      ****     UART_ClearRxBuffer();
 470              		.loc 1 161 0
 471 0004 FFF7FEFF 		bl	UART_ClearRxBuffer
 472              	.LVL56:
 160:serial.c      ****     int counter=0;
 473              		.loc 1 160 0
 474 0008 0024     		movs	r4, #0
 162:serial.c      ****     while(counter<1){
 475              		.loc 1 162 0
 476 000a 2DE0     		b	.L38
 477              	.LVL57:
 478              	.L40:
 163:serial.c      ****         if ((0u != UART_ReadRxStatus())||(0u != UART_GetRxBufferSize()))
 479              		.loc 1 163 0
 480 000c FFF7FEFF 		bl	UART_ReadRxStatus
 481              	.LVL58:
 482 0010 10B9     		cbnz	r0, .L36
 483              		.loc 1 163 0 is_stmt 0 discriminator 1
 484 0012 FFF7FEFF 		bl	UART_GetRxBufferSize
 485              	.LVL59:
 486 0016 10B1     		cbz	r0, .L37
 487              	.L36:
 164:serial.c      ****             {trigger=1;}
 488              		.loc 1 164 0 is_stmt 1
 489 0018 0122     		movs	r2, #1
 490 001a 154B     		ldr	r3, .L42
 491 001c 1A70     		strb	r2, [r3]
 492              	.L37:
 165:serial.c      ****                 if (0u != trigger)
 493              		.loc 1 165 0
 494 001e 144B     		ldr	r3, .L42
 495 0020 1B78     		ldrb	r3, [r3]	@ zero_extendqisi2
 496 0022 0BB3     		cbz	r3, .L38
 166:serial.c      ****                 {
 167:serial.c      ****                     CyDelay(10);
 497              		.loc 1 167 0
 498 0024 0A20     		movs	r0, #10
 499 0026 FFF7FEFF 		bl	CyDelay
 500              	.LVL60:
 168:serial.c      ****                     strncpy(buffer, (const char *)UART_rxBuffer, UART_RXBUFFERSIZE);
 501              		.loc 1 168 0
 502 002a 1248     		ldr	r0, .L42+4
 503 002c 1249     		ldr	r1, .L42+8
 504 002e 4FF48062 		mov	r2, #1024
 505 0032 FFF7FEFF 		bl	strncpy
 506              	.LVL61:
 169:serial.c      ****                     if (counter==0)
 507              		.loc 1 169 0
 508 0036 9CB9     		cbnz	r4, .L39
ARM GAS  C:\Users\tadge\AppData\Local\Temp\ccQx12jg.s 			page 13


 509              	.LBB8:
 170:serial.c      ****                         {
 171:serial.c      ****                             
 172:serial.c      ****                             char str[100];
 173:serial.c      ****                             *int1=atoi(buffer);
 510              		.loc 1 173 0
 511 0038 0E4F     		ldr	r7, .L42+4
 512 003a 3846     		mov	r0, r7
 513 003c FFF7FEFF 		bl	atoi
 514              	.LVL62:
 515 0040 2860     		str	r0, [r5]
 174:serial.c      ****                             //sprintf(str,"Recieved 1st [%i] \n",*int1);
 175:serial.c      ****                             //UART_PutString(str);
 176:serial.c      ****            
 177:serial.c      ****                             UART_ClearRxBuffer();
 516              		.loc 1 177 0
 517 0042 FFF7FEFF 		bl	UART_ClearRxBuffer
 518              	.LVL63:
 178:serial.c      ****                             strncpy((char *)UART_rxBuffer,"",sizeof(UART_rxBuffer));
 519              		.loc 1 178 0
 520 0046 0D4E     		ldr	r6, .L42+12
 521 0048 0B48     		ldr	r0, .L42+8
 522 004a 3146     		mov	r1, r6
 523 004c 4FF48062 		mov	r2, #1024
 524 0050 FFF7FEFF 		bl	strncpy
 525              	.LVL64:
 179:serial.c      ****                             strncpy(buffer,"",sizeof(buffer));
 526              		.loc 1 179 0
 527 0054 3846     		mov	r0, r7
 528 0056 3146     		mov	r1, r6
 529 0058 4FF48062 		mov	r2, #1024
 530 005c FFF7FEFF 		bl	strncpy
 531              	.LVL65:
 532              	.L39:
 533              	.LBE8:
 180:serial.c      ****                             
 181:serial.c      ****                         }
 182:serial.c      ****                     
 183:serial.c      ****                         trigger=0;
 534              		.loc 1 183 0
 535 0060 0022     		movs	r2, #0
 536 0062 034B     		ldr	r3, .L42
 537 0064 1A70     		strb	r2, [r3]
 184:serial.c      ****                         counter=counter+1;
 538              		.loc 1 184 0
 539 0066 0134     		adds	r4, r4, #1
 540              	.LVL66:
 541              	.L38:
 162:serial.c      ****         if ((0u != UART_ReadRxStatus())||(0u != UART_GetRxBufferSize()))
 542              		.loc 1 162 0
 543 0068 002C     		cmp	r4, #0
 544 006a CFDD     		ble	.L40
 185:serial.c      ****                 }
 186:serial.c      ****     }
 187:serial.c      ****     return 0;
 188:serial.c      **** }...
 545              		.loc 1 188 0
ARM GAS  C:\Users\tadge\AppData\Local\Temp\ccQx12jg.s 			page 14


 546 006c 0020     		movs	r0, #0
 547 006e F8BD     		pop	{r3, r4, r5, r6, r7, pc}
 548              	.LVL67:
 549              	.L43:
 550              		.align	2
 551              	.L42:
 552 0070 00000000 		.word	trigger
 553 0074 00000000 		.word	buffer
 554 0078 00000000 		.word	UART_rxBuffer
 555 007c 00000000 		.word	.LC0
 556              		.cfi_endproc
 557              	.LFE66:
 558              		.size	get_serial_update2, .-get_serial_update2
 559              		.comm	trigger,1,1
 560              		.comm	buffer,1024,4
 561              		.comm	i,4,4
 562              		.section	.rodata.str1.4,"aMS",%progbits,1
 563              		.align	2
 564              	.LC0:
 565 0000 00       		.ascii	"\000"
 566 0001 000000   		.text
 567              	.Letext0:
 568              		.file 2 "c:\\program files (x86)\\cypress\\psoc creator\\4.0\\psoc creator\\import\\gnu\\arm\\4.9.
 569              		.file 3 "c:\\program files (x86)\\cypress\\psoc creator\\4.0\\psoc creator\\import\\gnu\\arm\\4.9.
 570              		.file 4 "Generated_Source\\PSoC5/cytypes.h"
 571              		.file 5 "c:\\program files (x86)\\cypress\\psoc creator\\4.0\\psoc creator\\import\\gnu\\arm\\4.9.
 572              		.file 6 "Generated_Source\\PSoC5/UART.h"
 573              		.file 7 "Generated_Source\\PSoC5/core_cm3.h"
 574              		.file 8 "c:\\program files (x86)\\cypress\\psoc creator\\4.0\\psoc creator\\import\\gnu\\arm\\4.9.
 575              		.file 9 "c:\\program files (x86)\\cypress\\psoc creator\\4.0\\psoc creator\\import\\gnu\\arm\\4.9.
 576              		.file 10 "Generated_Source\\PSoC5/CyLib.h"