ARM GAS  C:\Users\shevi\AppData\Local\Temp\ccpEov4m.s 			page 1


   1              		.syntax unified
   2              		.cpu cortex-m3
   3              		.fpu softvfp
   4              		.eabi_attribute 20, 1
   5              		.eabi_attribute 21, 1
   6              		.eabi_attribute 23, 3
   7              		.eabi_attribute 24, 1
   8              		.eabi_attribute 25, 1
   9              		.eabi_attribute 26, 1
  10              		.eabi_attribute 30, 1
  11              		.eabi_attribute 34, 1
  12              		.eabi_attribute 18, 4
  13              		.thumb
  14              		.file	"main.c"
  15              		.text
  16              	.Ltext0:
  17              		.cfi_sections	.debug_frame
  18              		.section	.text.Timer_1_Handler,"ax",%progbits
  19              		.align	2
  20              		.global	Timer_1_Handler
  21              		.thumb
  22              		.thumb_func
  23              		.type	Timer_1_Handler, %function
  24              	Timer_1_Handler:
  25              	.LFB65:
  26              		.file 1 "main.c"
   1:main.c        **** // include directives
   2:main.c        **** #include "project.h"
   3:main.c        **** #include <math.h>
   4:main.c        **** #include <stdio.h>
   5:main.c        **** #include <stdint.h>
   6:main.c        **** #include <time.h>
   7:main.c        **** 
   8:main.c        **** extern void forward();
   9:main.c        **** extern void stop();
  10:main.c        **** extern void drive();
  11:main.c        **** extern void turn_wheel();
  12:main.c        **** extern void turn();
  13:main.c        **** extern void straight();
  14:main.c        **** extern void turn();
  15:main.c        **** extern void Check_Speed();
  16:main.c        **** extern void Print_Values();
  17:main.c        **** extern void new_path();
  18:main.c        **** extern int get_serial_update();
  19:main.c        **** extern void get_serial_speed();
  20:main.c        **** extern void get_serial_control();
  21:main.c        **** extern void test_values();
  22:main.c        **** extern void step_response();
  23:main.c        **** 
  24:main.c        **** 
  25:main.c        **** char mystring[50];
  26:main.c        **** 
  27:main.c        **** //turn on all components
  28:main.c        **** void Setup(){
  29:main.c        ****     
  30:main.c        ****     PWM_M1_Start();
  31:main.c        ****     PWM_M2_Start();
ARM GAS  C:\Users\shevi\AppData\Local\Temp\ccpEov4m.s 			page 2


  32:main.c        ****     UART_Start();
  33:main.c        ****     M1Clock_Start();
  34:main.c        ****     MClock_Start();
  35:main.c        ****     
  36:main.c        ****     M1QuadDec_Start();
  37:main.c        ****     M1QuadDec_Enable();
  38:main.c        ****     CyDelay(1000);
  39:main.c        ****     M1QuadDec_SetCounter(0);
  40:main.c        **** 
  41:main.c        ****     CyDelay(1000);
  42:main.c        ****     
  43:main.c        ****     M2QuadDec_Start();
  44:main.c        ****     M2QuadDec_Enable();
  45:main.c        ****     CyDelay(1000);
  46:main.c        ****     M2QuadDec_SetCounter(0);
  47:main.c        ****     
  48:main.c        ****     Timer_1_Start();
  49:main.c        ****     isr_1ms_Enable();
  50:main.c        ****    
  51:main.c        **** }
  52:main.c        **** 
  53:main.c        **** void Stop(){
  54:main.c        **** PWM_M1_Stop();
  55:main.c        ****     PWM_M2_Stop();}
  56:main.c        **** CY_ISR( Timer_1_Handler ){
  27              		.loc 1 56 0
  28              		.cfi_startproc
  29              		@ args = 0, pretend = 0, frame = 0
  30              		@ frame_needed = 0, uses_anonymous_args = 0
  31 0000 08B5     		push	{r3, lr}
  32              		.cfi_def_cfa_offset 8
  33              		.cfi_offset 3, -8
  34              		.cfi_offset 14, -4
  57:main.c        ****     
  58:main.c        ****     Check_Speed(30);
  35              		.loc 1 58 0
  36 0002 1E20     		movs	r0, #30
  37 0004 FFF7FEFF 		bl	Check_Speed
  38              	.LVL0:
  59:main.c        ****     Timer_1_ReadStatusRegister();
  39              		.loc 1 59 0
  40 0008 FFF7FEFF 		bl	Timer_1_ReadStatusRegister
  41              	.LVL1:
  42 000c 08BD     		pop	{r3, pc}
  43              		.cfi_endproc
  44              	.LFE65:
  45              		.size	Timer_1_Handler, .-Timer_1_Handler
  46 000e 00BF     		.section	.text.Setup,"ax",%progbits
  47              		.align	2
  48              		.global	Setup
  49              		.thumb
  50              		.thumb_func
  51              		.type	Setup, %function
  52              	Setup:
  53              	.LFB63:
  28:main.c        ****     
  54              		.loc 1 28 0
ARM GAS  C:\Users\shevi\AppData\Local\Temp\ccpEov4m.s 			page 3


  55              		.cfi_startproc
  56              		@ args = 0, pretend = 0, frame = 0
  57              		@ frame_needed = 0, uses_anonymous_args = 0
  58 0000 08B5     		push	{r3, lr}
  59              		.cfi_def_cfa_offset 8
  60              		.cfi_offset 3, -8
  61              		.cfi_offset 14, -4
  30:main.c        ****     PWM_M2_Start();
  62              		.loc 1 30 0
  63 0002 FFF7FEFF 		bl	PWM_M1_Start
  64              	.LVL2:
  31:main.c        ****     UART_Start();
  65              		.loc 1 31 0
  66 0006 FFF7FEFF 		bl	PWM_M2_Start
  67              	.LVL3:
  32:main.c        ****     M1Clock_Start();
  68              		.loc 1 32 0
  69 000a FFF7FEFF 		bl	UART_Start
  70              	.LVL4:
  33:main.c        ****     MClock_Start();
  71              		.loc 1 33 0
  72 000e FFF7FEFF 		bl	M1Clock_Start
  73              	.LVL5:
  34:main.c        ****     
  74              		.loc 1 34 0
  75 0012 FFF7FEFF 		bl	MClock_Start
  76              	.LVL6:
  36:main.c        ****     M1QuadDec_Enable();
  77              		.loc 1 36 0
  78 0016 FFF7FEFF 		bl	M1QuadDec_Start
  79              	.LVL7:
  37:main.c        ****     CyDelay(1000);
  80              		.loc 1 37 0
  81 001a FFF7FEFF 		bl	M1QuadDec_Enable
  82              	.LVL8:
  38:main.c        ****     M1QuadDec_SetCounter(0);
  83              		.loc 1 38 0
  84 001e 4FF47A70 		mov	r0, #1000
  85 0022 FFF7FEFF 		bl	CyDelay
  86              	.LVL9:
  39:main.c        **** 
  87              		.loc 1 39 0
  88 0026 0020     		movs	r0, #0
  89 0028 FFF7FEFF 		bl	M1QuadDec_SetCounter
  90              	.LVL10:
  41:main.c        ****     
  91              		.loc 1 41 0
  92 002c 4FF47A70 		mov	r0, #1000
  93 0030 FFF7FEFF 		bl	CyDelay
  94              	.LVL11:
  43:main.c        ****     M2QuadDec_Enable();
  95              		.loc 1 43 0
  96 0034 FFF7FEFF 		bl	M2QuadDec_Start
  97              	.LVL12:
  44:main.c        ****     CyDelay(1000);
  98              		.loc 1 44 0
  99 0038 FFF7FEFF 		bl	M2QuadDec_Enable
ARM GAS  C:\Users\shevi\AppData\Local\Temp\ccpEov4m.s 			page 4


 100              	.LVL13:
  45:main.c        ****     M2QuadDec_SetCounter(0);
 101              		.loc 1 45 0
 102 003c 4FF47A70 		mov	r0, #1000
 103 0040 FFF7FEFF 		bl	CyDelay
 104              	.LVL14:
  46:main.c        ****     
 105              		.loc 1 46 0
 106 0044 0020     		movs	r0, #0
 107 0046 FFF7FEFF 		bl	M2QuadDec_SetCounter
 108              	.LVL15:
  48:main.c        ****     isr_1ms_Enable();
 109              		.loc 1 48 0
 110 004a FFF7FEFF 		bl	Timer_1_Start
 111              	.LVL16:
  49:main.c        ****    
 112              		.loc 1 49 0
 113 004e FFF7FEFF 		bl	isr_1ms_Enable
 114              	.LVL17:
 115 0052 08BD     		pop	{r3, pc}
 116              		.cfi_endproc
 117              	.LFE63:
 118              		.size	Setup, .-Setup
 119              		.section	.text.Stop,"ax",%progbits
 120              		.align	2
 121              		.global	Stop
 122              		.thumb
 123              		.thumb_func
 124              		.type	Stop, %function
 125              	Stop:
 126              	.LFB64:
  53:main.c        **** PWM_M1_Stop();
 127              		.loc 1 53 0
 128              		.cfi_startproc
 129              		@ args = 0, pretend = 0, frame = 0
 130              		@ frame_needed = 0, uses_anonymous_args = 0
 131 0000 08B5     		push	{r3, lr}
 132              		.cfi_def_cfa_offset 8
 133              		.cfi_offset 3, -8
 134              		.cfi_offset 14, -4
  54:main.c        ****     PWM_M2_Stop();}
 135              		.loc 1 54 0
 136 0002 FFF7FEFF 		bl	PWM_M1_Stop
 137              	.LVL18:
  55:main.c        **** CY_ISR( Timer_1_Handler ){
 138              		.loc 1 55 0
 139 0006 FFF7FEFF 		bl	PWM_M2_Stop
 140              	.LVL19:
 141 000a 08BD     		pop	{r3, pc}
 142              		.cfi_endproc
 143              	.LFE64:
 144              		.size	Stop, .-Stop
 145              		.section	.text.main,"ax",%progbits
 146              		.align	2
 147              		.global	main
 148              		.thumb
 149              		.thumb_func
ARM GAS  C:\Users\shevi\AppData\Local\Temp\ccpEov4m.s 			page 5


 150              		.type	main, %function
 151              	main:
 152              	.LFB66:
  60:main.c        ****     //Print_Values();
  61:main.c        ****     
  62:main.c        ****     
  63:main.c        **** }
  64:main.c        **** 
  65:main.c        **** int main(void){
 153              		.loc 1 65 0
 154              		.cfi_startproc
 155              		@ args = 0, pretend = 0, frame = 48
 156              		@ frame_needed = 0, uses_anonymous_args = 0
 157 0000 10B5     		push	{r4, lr}
 158              		.cfi_def_cfa_offset 8
 159              		.cfi_offset 4, -8
 160              		.cfi_offset 14, -4
 161 0002 8EB0     		sub	sp, sp, #56
 162              		.cfi_def_cfa_offset 64
  66:main.c        ****     
  67:main.c        ****     CyGlobalIntEnable;
 163              		.loc 1 67 0
 164              	@ 67 "main.c" 1
 165 0004 62B6     		CPSIE   i
 166              	@ 0 "" 2
  68:main.c        ****     
  69:main.c        ****     Setup();
 167              		.loc 1 69 0
 168              		.thumb
 169 0006 FFF7FEFF 		bl	Setup
 170              	.LVL20:
  70:main.c        ****     char str[50];
  71:main.c        **** 
  72:main.c        ****     isr_1ms_StartEx( Timer_1_Handler );
 171              		.loc 1 72 0
 172 000a 3248     		ldr	r0, .L22
 173 000c FFF7FEFF 		bl	isr_1ms_StartEx
 174              	.LVL21:
  73:main.c        ****     int counter = 0; 
  74:main.c        ****     Timer_1_WritePeriod(12000); //CHANGE THIS BACK TO 12000
 175              		.loc 1 74 0
 176 0010 42F6E060 		movw	r0, #12000
 177 0014 FFF7FEFF 		bl	Timer_1_WritePeriod
 178              	.LVL22:
  75:main.c        ****     int trigger1=0;
  76:main.c        ****     int int1=0;
 179              		.loc 1 76 0
 180 0018 0023     		movs	r3, #0
 181 001a 0D93     		str	r3, [sp, #52]
  77:main.c        ****     int int2=0;
 182              		.loc 1 77 0
 183 001c 0C93     		str	r3, [sp, #48]
 184              	.LVL23:
 185              	.L8:
  78:main.c        ****     int int3=0;
  79:main.c        ****     int update;
  80:main.c        ****     double int11;
ARM GAS  C:\Users\shevi\AppData\Local\Temp\ccpEov4m.s 			page 6


  81:main.c        ****     double int22;
  82:main.c        ****     double int33;
  83:main.c        ****     long int int111;
  84:main.c        ****     long int int222;
  85:main.c        ****     int i;
  86:main.c        ****         
  87:main.c        ****     for(;;){ 
  88:main.c        ****     
  89:main.c        ****     get_serial_update(&update);
 186              		.loc 1 89 0
 187 001e 0BA8     		add	r0, sp, #44
 188 0020 FFF7FEFF 		bl	get_serial_update
 189              	.LVL24:
  90:main.c        ****     
  91:main.c        ****     if(update==0){      
 190              		.loc 1 91 0
 191 0024 0B9B     		ldr	r3, [sp, #44]
 192 0026 2BB9     		cbnz	r3, .L9
  92:main.c        ****         UART_PutString("----- Reset -----\n"); 
 193              		.loc 1 92 0
 194 0028 2B48     		ldr	r0, .L22+4
 195 002a FFF7FEFF 		bl	UART_PutString
 196              	.LVL25:
  93:main.c        ****         CySoftwareReset();
 197              		.loc 1 93 0
 198 002e FFF7FEFF 		bl	CySoftwareReset
 199              	.LVL26:
 200 0032 F4E7     		b	.L8
 201              	.L9:
  94:main.c        ****         
  95:main.c        ****     }
  96:main.c        ****     else if (update==2){
 202              		.loc 1 96 0
 203 0034 022B     		cmp	r3, #2
 204 0036 1AD1     		bne	.L11
  97:main.c        ****         UART_PutString("----- Speed -----\n"); 
 205              		.loc 1 97 0
 206 0038 2848     		ldr	r0, .L22+8
 207 003a FFF7FEFF 		bl	UART_PutString
 208              	.LVL27:
  98:main.c        ****         get_serial_speed(&int1, &int2);
 209              		.loc 1 98 0
 210 003e 0DA8     		add	r0, sp, #52
 211 0040 0CA9     		add	r1, sp, #48
 212 0042 FFF7FEFF 		bl	get_serial_speed
 213              	.LVL28:
  99:main.c        ****         new_path(int1,int2);
 214              		.loc 1 99 0
 215 0046 0D98     		ldr	r0, [sp, #52]
 216 0048 0C99     		ldr	r1, [sp, #48]
 217 004a FFF7FEFF 		bl	new_path
 218              	.LVL29:
 219 004e 0024     		movs	r4, #0
 220              	.LVL30:
 221              	.L13:
 100:main.c        ****         do {                
 101:main.c        ****             Print_Values();
ARM GAS  C:\Users\shevi\AppData\Local\Temp\ccpEov4m.s 			page 7


 222              		.loc 1 101 0
 223 0050 FFF7FEFF 		bl	Print_Values
 224              	.LVL31:
 102:main.c        ****             if((0u != UART_ReadRxStatus())||(0u != UART_GetRxBufferSize())){trigger1=1;}
 225              		.loc 1 102 0
 226 0054 FFF7FEFF 		bl	UART_ReadRxStatus
 227              	.LVL32:
 228 0058 18B9     		cbnz	r0, .L17
 229              		.loc 1 102 0 is_stmt 0 discriminator 2
 230 005a FFF7FEFF 		bl	UART_GetRxBufferSize
 231              	.LVL33:
 232 005e 10B9     		cbnz	r0, .L18
 233 0060 02E0     		b	.L12
 234              	.L17:
 235              		.loc 1 102 0
 236 0062 0124     		movs	r4, #1
 237              	.LVL34:
 238 0064 00E0     		b	.L12
 239              	.LVL35:
 240              	.L18:
 241 0066 0124     		movs	r4, #1
 242              	.LVL36:
 243              	.L12:
 103:main.c        ****         } while(trigger1==0);
 244              		.loc 1 103 0 is_stmt 1
 245 0068 002C     		cmp	r4, #0
 246 006a F1D0     		beq	.L13
 247 006c D7E7     		b	.L8
 248              	.LVL37:
 249              	.L11:
 104:main.c        ****     
 105:main.c        ****     }
 106:main.c        ****     else if (update==1){
 250              		.loc 1 106 0
 251 006e 012B     		cmp	r3, #1
 252 0070 12D1     		bne	.L14
 107:main.c        ****         UART_PutString("----- Update  -----\n"); 
 253              		.loc 1 107 0
 254 0072 1B48     		ldr	r0, .L22+12
 255 0074 FFF7FEFF 		bl	UART_PutString
 256              	.LVL38:
 108:main.c        ****         get_serial_control(&int11,&int22,&int33);
 257              		.loc 1 108 0
 258 0078 08A8     		add	r0, sp, #32
 259 007a 06A9     		add	r1, sp, #24
 260 007c 04AA     		add	r2, sp, #16
 261 007e FFF7FEFF 		bl	get_serial_control
 262              	.LVL39:
 109:main.c        ****         test_values(int11,int22,int33); 
 263              		.loc 1 109 0
 264 0082 DDE90423 		ldrd	r2, [sp, #16]
 265 0086 CDE90023 		strd	r2, [sp]
 266 008a DDE90801 		ldrd	r0, [sp, #32]
 267 008e DDE90623 		ldrd	r2, [sp, #24]
 268 0092 FFF7FEFF 		bl	test_values
 269              	.LVL40:
 270 0096 C2E7     		b	.L8
ARM GAS  C:\Users\shevi\AppData\Local\Temp\ccpEov4m.s 			page 8


 271              	.L14:
 110:main.c        ****     } 
 111:main.c        ****     else if (update==3){
 272              		.loc 1 111 0
 273 0098 032B     		cmp	r3, #3
 274 009a C0D1     		bne	.L8
 112:main.c        ****         
 113:main.c        ****         UART_PutString("----- Distance -----\n"); 
 275              		.loc 1 113 0
 276 009c 1148     		ldr	r0, .L22+16
 277 009e FFF7FEFF 		bl	UART_PutString
 278              	.LVL41:
 114:main.c        ****         get_serial_speed(&int111, &int222);
 279              		.loc 1 114 0
 280 00a2 03A8     		add	r0, sp, #12
 281 00a4 02A9     		add	r1, sp, #8
 282 00a6 FFF7FEFF 		bl	get_serial_speed
 283              	.LVL42:
 115:main.c        ****         step_response(int111,int222);
 284              		.loc 1 115 0
 285 00aa 0398     		ldr	r0, [sp, #12]
 286 00ac 0299     		ldr	r1, [sp, #8]
 287 00ae FFF7FEFF 		bl	step_response
 288              	.LVL43:
 289 00b2 0024     		movs	r4, #0
 290              	.LVL44:
 291              	.L16:
 116:main.c        ****         
 117:main.c        ****         do {                
 118:main.c        ****             Print_Values();
 292              		.loc 1 118 0
 293 00b4 FFF7FEFF 		bl	Print_Values
 294              	.LVL45:
 119:main.c        ****             if((0u != UART_ReadRxStatus())||(0u != UART_GetRxBufferSize())){trigger1=1;}
 295              		.loc 1 119 0
 296 00b8 FFF7FEFF 		bl	UART_ReadRxStatus
 297              	.LVL46:
 298 00bc 18B9     		cbnz	r0, .L19
 299              		.loc 1 119 0 is_stmt 0 discriminator 2
 300 00be FFF7FEFF 		bl	UART_GetRxBufferSize
 301              	.LVL47:
 302 00c2 10B9     		cbnz	r0, .L20
 303 00c4 02E0     		b	.L15
 304              	.L19:
 305              		.loc 1 119 0
 306 00c6 0124     		movs	r4, #1
 307              	.LVL48:
 308 00c8 00E0     		b	.L15
 309              	.LVL49:
 310              	.L20:
 311 00ca 0124     		movs	r4, #1
 312              	.LVL50:
 313              	.L15:
 120:main.c        ****         } while(trigger1==0);
 314              		.loc 1 120 0 is_stmt 1
 315 00cc 002C     		cmp	r4, #0
 316 00ce F1D0     		beq	.L16
ARM GAS  C:\Users\shevi\AppData\Local\Temp\ccpEov4m.s 			page 9


 317 00d0 A5E7     		b	.L8
 318              	.L23:
 319 00d2 00BF     		.align	2
 320              	.L22:
 321 00d4 00000000 		.word	Timer_1_Handler
 322 00d8 00000000 		.word	.LC0
 323 00dc 14000000 		.word	.LC1
 324 00e0 28000000 		.word	.LC2
 325 00e4 40000000 		.word	.LC3
 326              		.cfi_endproc
 327              	.LFE66:
 328              		.size	main, .-main
 329              		.comm	mystring,50,4
 330              		.section	.rodata.str1.4,"aMS",%progbits,1
 331              		.align	2
 332              	.LC0:
 333 0000 2D2D2D2D 		.ascii	"----- Reset -----\012\000"
 333      2D205265 
 333      73657420 
 333      2D2D2D2D 
 333      2D0A00
 334 0013 00       		.space	1
 335              	.LC1:
 336 0014 2D2D2D2D 		.ascii	"----- Speed -----\012\000"
 336      2D205370 
 336      65656420 
 336      2D2D2D2D 
 336      2D0A00
 337 0027 00       		.space	1
 338              	.LC2:
 339 0028 2D2D2D2D 		.ascii	"----- Update  -----\012\000"
 339      2D205570 
 339      64617465 
 339      20202D2D 
 339      2D2D2D0A 
 340 003d 000000   		.space	3
 341              	.LC3:
 342 0040 2D2D2D2D 		.ascii	"----- Distance -----\012\000"
 342      2D204469 
 342      7374616E 
 342      6365202D 
 342      2D2D2D2D 
 343 0056 0000     		.text
 344              	.Letext0:
 345              		.file 2 "c:\\program files (x86)\\cypress\\psoc creator\\4.0\\psoc creator\\import\\gnu\\arm\\4.9.
 346              		.file 3 "c:\\program files (x86)\\cypress\\psoc creator\\4.0\\psoc creator\\import\\gnu\\arm\\4.9.
 347              		.file 4 "Generated_Source\\PSoC5/cytypes.h"
 348              		.file 5 "Generated_Source\\PSoC5/core_cm3.h"
 349              		.file 6 "Generated_Source\\PSoC5/PWM_M1.h"
 350              		.file 7 "Generated_Source\\PSoC5/PWM_M2.h"
 351              		.file 8 "Generated_Source\\PSoC5/UART.h"
 352              		.file 9 "Generated_Source\\PSoC5/M1Clock.h"
 353              		.file 10 "Generated_Source\\PSoC5/MClock.h"
 354              		.file 11 "Generated_Source\\PSoC5/M1QuadDec.h"
 355              		.file 12 "Generated_Source\\PSoC5/CyLib.h"
 356              		.file 13 "Generated_Source\\PSoC5/M2QuadDec.h"
 357              		.file 14 "Generated_Source\\PSoC5/Timer_1.h"
ARM GAS  C:\Users\shevi\AppData\Local\Temp\ccpEov4m.s 			page 10


 358              		.file 15 "Generated_Source\\PSoC5/isr_1ms.h"