ARM GAS  C:\Users\shevi\AppData\Local\Temp\ccLQTamn.s 			page 1


   1              		.syntax unified
   2              		.cpu cortex-m3
   3              		.fpu softvfp
   4              		.eabi_attribute 20, 1
   5              		.eabi_attribute 21, 1
   6              		.eabi_attribute 23, 3
   7              		.eabi_attribute 24, 1
   8              		.eabi_attribute 25, 1
   9              		.eabi_attribute 26, 1
  10              		.eabi_attribute 30, 1
  11              		.eabi_attribute 34, 1
  12              		.eabi_attribute 18, 4
  13              		.thumb
  14              		.file	"movement.c"
  15              		.text
  16              	.Ltext0:
  17              		.cfi_sections	.debug_frame
  18              		.section	.text.turn_wheel,"ax",%progbits
  19              		.align	2
  20              		.global	turn_wheel
  21              		.thumb
  22              		.thumb_func
  23              		.type	turn_wheel, %function
  24              	turn_wheel:
  25              	.LFB63:
  26              		.file 1 "movement.c"
   1:movement.c    **** // include directives
   2:movement.c    **** 
   3:movement.c    **** // RIGHT WHEEL IS MOTOR 2 !!!!!!!!!!!!!!!!!!!!!!!!!!!!!!!!!!!!!!!!!!!!!!!!!!!!
   4:movement.c    **** // speed is a value between 0 and 65535
   5:movement.c    **** #include "project.h"
   6:movement.c    **** #include <math.h>
   7:movement.c    **** #include <stdio.h>
   8:movement.c    **** #include <stdint.h>
   9:movement.c    **** #include <stdlib.h>
  10:movement.c    **** #include <time.h>
  11:movement.c    ****     
  12:movement.c    **** char mystring[50];
  13:movement.c    **** 
  14:movement.c    **** 
  15:movement.c    **** /* declare global variables */
  16:movement.c    **** 
  17:movement.c    **** 
  18:movement.c    ****     long int cur_dest_left = 0;
  19:movement.c    ****     long int cur_dest_right = 0;  
  20:movement.c    ****     long int prev_dest_right;
  21:movement.c    ****     long int prev_dest_left;
  22:movement.c    ****     
  23:movement.c    ****     long int cur_pos_left;  
  24:movement.c    ****     long int cur_pos_right;
  25:movement.c    ****     long int last_pos_right;
  26:movement.c    ****     long int last_pos_left;
  27:movement.c    **** 
  28:movement.c    ****     int volt_motor_left;
  29:movement.c    ****     int volt_motor_right;
  30:movement.c    **** 
  31:movement.c    ****     int adj_motor_left;
ARM GAS  C:\Users\shevi\AppData\Local\Temp\ccLQTamn.s 			page 2


  32:movement.c    ****     int adj_motor_right;
  33:movement.c    **** 
  34:movement.c    ****     int error_left;
  35:movement.c    ****     int error_right;
  36:movement.c    **** 
  37:movement.c    ****     int error_left_prev;
  38:movement.c    ****     int error_right_prev;
  39:movement.c    **** 
  40:movement.c    ****     int error_left_sum;
  41:movement.c    ****     int error_right_sum;
  42:movement.c    **** 
  43:movement.c    ****     double Kp;
  44:movement.c    ****     double Ki;
  45:movement.c    ****     double Kd;
  46:movement.c    **** 
  47:movement.c    ****     int speed_left;
  48:movement.c    ****     int speed_right;
  49:movement.c    **** 
  50:movement.c    ****     int inc_left;
  51:movement.c    ****     int inc_right;
  52:movement.c    **** 
  53:movement.c    ****     long int time_ms;
  54:movement.c    ****     long int time_ms_start;
  55:movement.c    ****     
  56:movement.c    **** 
  57:movement.c    **** void turn_wheel(char side, int volt){
  27              		.loc 1 57 0
  28              		.cfi_startproc
  29              		@ args = 0, pretend = 0, frame = 0
  30              		@ frame_needed = 0, uses_anonymous_args = 0
  31              	.LVL0:
  32 0000 38B5     		push	{r3, r4, r5, lr}
  33              		.cfi_def_cfa_offset 16
  34              		.cfi_offset 3, -16
  35              		.cfi_offset 4, -12
  36              		.cfi_offset 5, -8
  37              		.cfi_offset 14, -4
  38 0002 0446     		mov	r4, r0
  39 0004 0D46     		mov	r5, r1
  58:movement.c    ****     // turning right wheel
  59:movement.c    ****     if (side == 'r'){
  40              		.loc 1 59 0
  41 0006 7228     		cmp	r0, #114
  42 0008 21D1     		bne	.L2
  60:movement.c    ****         Standby_Write(1);
  43              		.loc 1 60 0
  44 000a 0120     		movs	r0, #1
  45              	.LVL1:
  46 000c FFF7FEFF 		bl	Standby_Write
  47              	.LVL2:
  61:movement.c    ****         PWM_M2_WriteCompare(abs(volt));
  48              		.loc 1 61 0
  49 0010 85EAE570 		eor	r0, r5, r5, asr #31
  50 0014 A0EBE570 		sub	r0, r0, r5, asr #31
  51 0018 80B2     		uxth	r0, r0
  52 001a FFF7FEFF 		bl	PWM_M2_WriteCompare
  53              	.LVL3:
ARM GAS  C:\Users\shevi\AppData\Local\Temp\ccLQTamn.s 			page 3


  62:movement.c    ****         
  63:movement.c    ****         if (volt > 0)
  54              		.loc 1 63 0
  55 001e 002D     		cmp	r5, #0
  56 0020 06DD     		ble	.L3
  64:movement.c    ****         {
  65:movement.c    ****             M2_FWD_Write(0);
  57              		.loc 1 65 0
  58 0022 0020     		movs	r0, #0
  59 0024 FFF7FEFF 		bl	M2_FWD_Write
  60              	.LVL4:
  66:movement.c    ****             M2_BWD_Write(1);
  61              		.loc 1 66 0
  62 0028 0120     		movs	r0, #1
  63 002a FFF7FEFF 		bl	M2_BWD_Write
  64              	.LVL5:
  65 002e 0EE0     		b	.L2
  66              	.L3:
  67:movement.c    ****         }
  68:movement.c    ****         else if (volt < 0)
  67              		.loc 1 68 0
  68 0030 002D     		cmp	r5, #0
  69 0032 06DA     		bge	.L4
  69:movement.c    ****         {
  70:movement.c    ****             M2_FWD_Write(1);
  70              		.loc 1 70 0
  71 0034 0120     		movs	r0, #1
  72 0036 FFF7FEFF 		bl	M2_FWD_Write
  73              	.LVL6:
  71:movement.c    ****             M2_BWD_Write(0);
  74              		.loc 1 71 0
  75 003a 0020     		movs	r0, #0
  76 003c FFF7FEFF 		bl	M2_BWD_Write
  77              	.LVL7:
  78 0040 05E0     		b	.L2
  79              	.L4:
  72:movement.c    ****         }
  73:movement.c    ****         else
  74:movement.c    ****         {
  75:movement.c    ****             M2_FWD_Write(0);
  80              		.loc 1 75 0
  81 0042 0020     		movs	r0, #0
  82 0044 FFF7FEFF 		bl	M2_FWD_Write
  83              	.LVL8:
  76:movement.c    ****             M2_BWD_Write(0);
  84              		.loc 1 76 0
  85 0048 0020     		movs	r0, #0
  86 004a FFF7FEFF 		bl	M2_BWD_Write
  87              	.LVL9:
  88              	.L2:
  77:movement.c    ****         }
  78:movement.c    ****     }
  79:movement.c    ****     
  80:movement.c    ****     //turning left wheel
  81:movement.c    ****     if (side == 'l'){
  89              		.loc 1 81 0
  90 004e 6C2C     		cmp	r4, #108
ARM GAS  C:\Users\shevi\AppData\Local\Temp\ccLQTamn.s 			page 4


  91 0050 21D1     		bne	.L1
  82:movement.c    ****         Standby_Write(1);
  92              		.loc 1 82 0
  93 0052 0120     		movs	r0, #1
  94 0054 FFF7FEFF 		bl	Standby_Write
  95              	.LVL10:
  83:movement.c    ****         PWM_M1_WriteCompare(abs(volt));
  96              		.loc 1 83 0
  97 0058 85EAE570 		eor	r0, r5, r5, asr #31
  98 005c A0EBE570 		sub	r0, r0, r5, asr #31
  99 0060 80B2     		uxth	r0, r0
 100 0062 FFF7FEFF 		bl	PWM_M1_WriteCompare
 101              	.LVL11:
  84:movement.c    ****         
  85:movement.c    ****         if (volt > 0)
 102              		.loc 1 85 0
 103 0066 002D     		cmp	r5, #0
 104 0068 06DD     		ble	.L6
  86:movement.c    ****         {
  87:movement.c    ****             M1_FWD_Write(0);
 105              		.loc 1 87 0
 106 006a 0020     		movs	r0, #0
 107 006c FFF7FEFF 		bl	M1_FWD_Write
 108              	.LVL12:
  88:movement.c    ****             M1_BWD_Write(1);
 109              		.loc 1 88 0
 110 0070 0120     		movs	r0, #1
 111 0072 FFF7FEFF 		bl	M1_BWD_Write
 112              	.LVL13:
 113 0076 38BD     		pop	{r3, r4, r5, pc}
 114              	.LVL14:
 115              	.L6:
  89:movement.c    ****         }
  90:movement.c    ****         else if (volt < 0)
 116              		.loc 1 90 0
 117 0078 002D     		cmp	r5, #0
 118 007a 06DA     		bge	.L7
  91:movement.c    ****         {
  92:movement.c    ****             M1_FWD_Write(1);
 119              		.loc 1 92 0
 120 007c 0120     		movs	r0, #1
 121 007e FFF7FEFF 		bl	M1_FWD_Write
 122              	.LVL15:
  93:movement.c    ****             M1_BWD_Write(0);
 123              		.loc 1 93 0
 124 0082 0020     		movs	r0, #0
 125 0084 FFF7FEFF 		bl	M1_BWD_Write
 126              	.LVL16:
 127 0088 38BD     		pop	{r3, r4, r5, pc}
 128              	.LVL17:
 129              	.L7:
  94:movement.c    ****         }
  95:movement.c    ****         else
  96:movement.c    ****         {
  97:movement.c    ****             M1_FWD_Write(0);
 130              		.loc 1 97 0
 131 008a 0020     		movs	r0, #0
ARM GAS  C:\Users\shevi\AppData\Local\Temp\ccLQTamn.s 			page 5


 132 008c FFF7FEFF 		bl	M1_FWD_Write
 133              	.LVL18:
  98:movement.c    ****             M1_BWD_Write(0);
 134              		.loc 1 98 0
 135 0090 0020     		movs	r0, #0
 136 0092 FFF7FEFF 		bl	M1_BWD_Write
 137              	.LVL19:
 138              	.L1:
 139 0096 38BD     		pop	{r3, r4, r5, pc}
 140              		.cfi_endproc
 141              	.LFE63:
 142              		.size	turn_wheel, .-turn_wheel
 143              		.section	.text.stop,"ax",%progbits
 144              		.align	2
 145              		.global	stop
 146              		.thumb
 147              		.thumb_func
 148              		.type	stop, %function
 149              	stop:
 150              	.LFB64:
  99:movement.c    ****         }
 100:movement.c    ****     }
 101:movement.c    **** }
 102:movement.c    **** void stop(){
 151              		.loc 1 102 0
 152              		.cfi_startproc
 153              		@ args = 0, pretend = 0, frame = 0
 154              		@ frame_needed = 0, uses_anonymous_args = 0
 155 0000 08B5     		push	{r3, lr}
 156              		.cfi_def_cfa_offset 8
 157              		.cfi_offset 3, -8
 158              		.cfi_offset 14, -4
 103:movement.c    ****     turn_wheel('r', 0);
 159              		.loc 1 103 0
 160 0002 7220     		movs	r0, #114
 161 0004 0021     		movs	r1, #0
 162 0006 FFF7FEFF 		bl	turn_wheel
 163              	.LVL20:
 104:movement.c    ****     turn_wheel('l', 0);
 164              		.loc 1 104 0
 165 000a 6C20     		movs	r0, #108
 166 000c 0021     		movs	r1, #0
 167 000e FFF7FEFF 		bl	turn_wheel
 168              	.LVL21:
 169 0012 08BD     		pop	{r3, pc}
 170              		.cfi_endproc
 171              	.LFE64:
 172              		.size	stop, .-stop
 173              		.section	.text.step_response,"ax",%progbits
 174              		.align	2
 175              		.global	step_response
 176              		.thumb
 177              		.thumb_func
 178              		.type	step_response, %function
 179              	step_response:
 180              	.LFB65:
 105:movement.c    **** }
ARM GAS  C:\Users\shevi\AppData\Local\Temp\ccLQTamn.s 			page 6


 106:movement.c    **** 
 107:movement.c    **** void step_response(long int left_dest, long int right_dest){
 181              		.loc 1 107 0
 182              		.cfi_startproc
 183              		@ args = 0, pretend = 0, frame = 0
 184              		@ frame_needed = 0, uses_anonymous_args = 0
 185              		@ link register save eliminated.
 186              	.LVL22:
 108:movement.c    ****     
 109:movement.c    ****      time_ms_start = time_ms; 
 187              		.loc 1 109 0
 188 0000 064B     		ldr	r3, .L12
 189 0002 1A68     		ldr	r2, [r3]
 190 0004 064B     		ldr	r3, .L12+4
 191 0006 1A60     		str	r2, [r3]
 110:movement.c    ****     
 111:movement.c    ****      cur_dest_left = left_dest;   
 192              		.loc 1 111 0
 193 0008 064B     		ldr	r3, .L12+8
 194 000a 1860     		str	r0, [r3]
 112:movement.c    ****      cur_dest_right = right_dest;
 195              		.loc 1 112 0
 196 000c 5960     		str	r1, [r3, #4]
 113:movement.c    ****         
 114:movement.c    ****      inc_left = 0;
 197              		.loc 1 114 0
 198 000e 0023     		movs	r3, #0
 199 0010 054A     		ldr	r2, .L12+12
 200 0012 1360     		str	r3, [r2]
 115:movement.c    ****      inc_right = 0;
 201              		.loc 1 115 0
 202 0014 054A     		ldr	r2, .L12+16
 203 0016 1360     		str	r3, [r2]
 204 0018 7047     		bx	lr
 205              	.L13:
 206 001a 00BF     		.align	2
 207              	.L12:
 208 001c 00000000 		.word	time_ms
 209 0020 00000000 		.word	time_ms_start
 210 0024 00000000 		.word	.LANCHOR0
 211 0028 00000000 		.word	inc_left
 212 002c 00000000 		.word	inc_right
 213              		.cfi_endproc
 214              	.LFE65:
 215              		.size	step_response, .-step_response
 216              		.section	.text.test_values,"ax",%progbits
 217              		.align	2
 218              		.global	test_values
 219              		.thumb
 220              		.thumb_func
 221              		.type	test_values, %function
 222              	test_values:
 223              	.LFB66:
 116:movement.c    ****     
 117:movement.c    **** }
 118:movement.c    **** /*
 119:movement.c    **** void Get_StartSpeed(){
ARM GAS  C:\Users\shevi\AppData\Local\Temp\ccLQTamn.s 			page 7


 120:movement.c    ****     speed_left = 10*(cur_dest_left - prev_dest_left);
 121:movement.c    ****     speed_right = 10*(cur_dest_right - prev_dest_left);
 122:movement.c    **** }
 123:movement.c    ****   
 124:movement.c    **** */
 125:movement.c    **** void test_values(double kp, double kd, double ki)
 126:movement.c    **** {   Kp=kp;
 224              		.loc 1 126 0
 225              		.cfi_startproc
 226              		@ args = 8, pretend = 0, frame = 0
 227              		@ frame_needed = 0, uses_anonymous_args = 0
 228              		@ link register save eliminated.
 229              	.LVL23:
 230 0000 10B4     		push	{r4}
 231              		.cfi_def_cfa_offset 4
 232              		.cfi_offset 4, -4
 233              		.loc 1 126 0
 234 0002 074C     		ldr	r4, .L16
 235 0004 C4E90001 		strd	r0, [r4]
 127:movement.c    ****     Kd=kd;
 236              		.loc 1 127 0
 237 0008 0649     		ldr	r1, .L16+4
 238 000a C1E90023 		strd	r2, [r1]
 128:movement.c    ****     Ki=ki;
 239              		.loc 1 128 0
 240 000e 064B     		ldr	r3, .L16+8
 241 0010 DDE90101 		ldrd	r0, [sp, #4]
 242              	.LVL24:
 243 0014 C3E90001 		strd	r0, [r3]
 129:movement.c    **** }
 244              		.loc 1 129 0
 245 0018 5DF8044B 		ldr	r4, [sp], #4
 246              		.cfi_restore 4
 247              		.cfi_def_cfa_offset 0
 248              	.LVL25:
 249 001c 7047     		bx	lr
 250              	.L17:
 251 001e 00BF     		.align	2
 252              	.L16:
 253 0020 00000000 		.word	Kp
 254 0024 00000000 		.word	Kd
 255 0028 00000000 		.word	Ki
 256              		.cfi_endproc
 257              	.LFE66:
 258              		.size	test_values, .-test_values
 259              		.section	.text.new_path,"ax",%progbits
 260              		.align	2
 261              		.global	new_path
 262              		.thumb
 263              		.thumb_func
 264              		.type	new_path, %function
 265              	new_path:
 266              	.LFB67:
 130:movement.c    **** void new_path(int incleft, int incright){
 267              		.loc 1 130 0
 268              		.cfi_startproc
 269              		@ args = 0, pretend = 0, frame = 0
ARM GAS  C:\Users\shevi\AppData\Local\Temp\ccLQTamn.s 			page 8


 270              		@ frame_needed = 0, uses_anonymous_args = 0
 271              		@ link register save eliminated.
 272              	.LVL26:
 131:movement.c    ****     
 132:movement.c    ****     
 133:movement.c    ****     inc_left = incleft;
 273              		.loc 1 133 0
 274 0000 024B     		ldr	r3, .L19
 275 0002 1860     		str	r0, [r3]
 134:movement.c    ****     inc_right = incright;
 276              		.loc 1 134 0
 277 0004 024B     		ldr	r3, .L19+4
 278 0006 1960     		str	r1, [r3]
 279 0008 7047     		bx	lr
 280              	.L20:
 281 000a 00BF     		.align	2
 282              	.L19:
 283 000c 00000000 		.word	inc_left
 284 0010 00000000 		.word	inc_right
 285              		.cfi_endproc
 286              	.LFE67:
 287              		.size	new_path, .-new_path
 288              		.section	.text.Get_Destination,"ax",%progbits
 289              		.align	2
 290              		.global	Get_Destination
 291              		.thumb
 292              		.thumb_func
 293              		.type	Get_Destination, %function
 294              	Get_Destination:
 295              	.LFB68:
 135:movement.c    ****     
 136:movement.c    ****     
 137:movement.c    ****     
 138:movement.c    ****     
 139:movement.c    ****     /*
 140:movement.c    ****     
 141:movement.c    ****     int speed = 30;
 142:movement.c    ****     inc_left = speed;
 143:movement.c    ****     inc_right = speed;
 144:movement.c    ****     
 145:movement.c    ****     if (cur_dest_right < fin_dest_right){
 146:movement.c    ****         direction_right = 1;}
 147:movement.c    ****     else{
 148:movement.c    ****         direction_right = -1;}
 149:movement.c    ****     
 150:movement.c    ****     if (cur_dest_left < fin_dest_left){
 151:movement.c    ****         direction_left = 1;}
 152:movement.c    ****     else{
 153:movement.c    ****         direction_left = -1;}
 154:movement.c    ****     
 155:movement.c    ****     iterations_left = fin_dest_left - cur_dest_left;
 156:movement.c    ****     iterations_count_left = 0;
 157:movement.c    ****     
 158:movement.c    ****     iterations_right = fin_dest_right - cur_dest_right;
 159:movement.c    ****     iterations_count_right = 0;
 160:movement.c    ****     
 161:movement.c    ****     */
ARM GAS  C:\Users\shevi\AppData\Local\Temp\ccLQTamn.s 			page 9


 162:movement.c    ****     
 163:movement.c    **** }
 164:movement.c    **** 
 165:movement.c    **** 
 166:movement.c    **** 
 167:movement.c    **** void Get_Destination(){
 296              		.loc 1 167 0
 297              		.cfi_startproc
 298              		@ args = 0, pretend = 0, frame = 0
 299              		@ frame_needed = 0, uses_anonymous_args = 0
 300              		@ link register save eliminated.
 168:movement.c    ****     
 169:movement.c    ****     cur_dest_left = cur_dest_left + inc_left;
 301              		.loc 1 169 0
 302 0000 054B     		ldr	r3, .L22
 303 0002 1968     		ldr	r1, [r3]
 304 0004 054A     		ldr	r2, .L22+4
 305 0006 1268     		ldr	r2, [r2]
 306 0008 0A44     		add	r2, r2, r1
 307 000a 1A60     		str	r2, [r3]
 170:movement.c    ****     cur_dest_right = cur_dest_right + inc_right;
 308              		.loc 1 170 0
 309 000c 5968     		ldr	r1, [r3, #4]
 310 000e 044A     		ldr	r2, .L22+8
 311 0010 1268     		ldr	r2, [r2]
 312 0012 0A44     		add	r2, r2, r1
 313 0014 5A60     		str	r2, [r3, #4]
 314 0016 7047     		bx	lr
 315              	.L23:
 316              		.align	2
 317              	.L22:
 318 0018 00000000 		.word	.LANCHOR0
 319 001c 00000000 		.word	inc_left
 320 0020 00000000 		.word	inc_right
 321              		.cfi_endproc
 322              	.LFE68:
 323              		.size	Get_Destination, .-Get_Destination
 324              		.section	.text.Get_Position,"ax",%progbits
 325              		.align	2
 326              		.global	Get_Position
 327              		.thumb
 328              		.thumb_func
 329              		.type	Get_Position, %function
 330              	Get_Position:
 331              	.LFB69:
 171:movement.c    **** }
 172:movement.c    **** void Get_Position(){
 332              		.loc 1 172 0
 333              		.cfi_startproc
 334              		@ args = 0, pretend = 0, frame = 0
 335              		@ frame_needed = 0, uses_anonymous_args = 0
 336 0000 08B5     		push	{r3, lr}
 337              		.cfi_def_cfa_offset 8
 338              		.cfi_offset 3, -8
 339              		.cfi_offset 14, -4
 173:movement.c    ****     cur_pos_right = -64*M2QuadDec_GetCounter();
 340              		.loc 1 173 0
ARM GAS  C:\Users\shevi\AppData\Local\Temp\ccLQTamn.s 			page 10


 341 0002 FFF7FEFF 		bl	M2QuadDec_GetCounter
 342              	.LVL27:
 343 0006 4042     		negs	r0, r0
 344 0008 8001     		lsls	r0, r0, #6
 345 000a 044B     		ldr	r3, .L26
 346 000c 1860     		str	r0, [r3]
 174:movement.c    ****     cur_pos_left = -64*M1QuadDec_GetCounter();
 347              		.loc 1 174 0
 348 000e FFF7FEFF 		bl	M1QuadDec_GetCounter
 349              	.LVL28:
 350 0012 4042     		negs	r0, r0
 351 0014 8001     		lsls	r0, r0, #6
 352 0016 024B     		ldr	r3, .L26+4
 353 0018 1860     		str	r0, [r3]
 354 001a 08BD     		pop	{r3, pc}
 355              	.L27:
 356              		.align	2
 357              	.L26:
 358 001c 00000000 		.word	cur_pos_right
 359 0020 00000000 		.word	cur_pos_left
 360              		.cfi_endproc
 361              	.LFE69:
 362              		.size	Get_Position, .-Get_Position
 363              		.section	.text.Get_Error,"ax",%progbits
 364              		.align	2
 365              		.global	Get_Error
 366              		.thumb
 367              		.thumb_func
 368              		.type	Get_Error, %function
 369              	Get_Error:
 370              	.LFB70:
 175:movement.c    **** }
 176:movement.c    **** void Get_Error(){
 371              		.loc 1 176 0
 372              		.cfi_startproc
 373              		@ args = 0, pretend = 0, frame = 0
 374              		@ frame_needed = 0, uses_anonymous_args = 0
 375              		@ link register save eliminated.
 376 0000 10B4     		push	{r4}
 377              		.cfi_def_cfa_offset 4
 378              		.cfi_offset 4, -4
 177:movement.c    ****     error_left_prev = error_left;
 379              		.loc 1 177 0
 380 0002 0F4C     		ldr	r4, .L30
 381 0004 2268     		ldr	r2, [r4]
 382 0006 0F4B     		ldr	r3, .L30+4
 383 0008 1A60     		str	r2, [r3]
 178:movement.c    ****     error_right_prev = error_right;
 384              		.loc 1 178 0
 385 000a 0F49     		ldr	r1, .L30+8
 386 000c 0A68     		ldr	r2, [r1]
 387 000e 0F4B     		ldr	r3, .L30+12
 388 0010 1A60     		str	r2, [r3]
 179:movement.c    ****     
 180:movement.c    ****     error_left = cur_dest_left - cur_pos_left;
 389              		.loc 1 180 0
 390 0012 0F48     		ldr	r0, .L30+16
ARM GAS  C:\Users\shevi\AppData\Local\Temp\ccLQTamn.s 			page 11


 391 0014 0368     		ldr	r3, [r0]
 392 0016 0F4A     		ldr	r2, .L30+20
 393 0018 1268     		ldr	r2, [r2]
 394 001a 9A1A     		subs	r2, r3, r2
 395 001c 2260     		str	r2, [r4]
 181:movement.c    ****     error_right = cur_dest_right - cur_pos_right;
 396              		.loc 1 181 0
 397 001e 4368     		ldr	r3, [r0, #4]
 398 0020 0D48     		ldr	r0, .L30+24
 399 0022 0068     		ldr	r0, [r0]
 400 0024 1B1A     		subs	r3, r3, r0
 401 0026 0B60     		str	r3, [r1]
 182:movement.c    ****     
 183:movement.c    ****     error_left_sum = error_left_sum + error_left;
 402              		.loc 1 183 0
 403 0028 0C48     		ldr	r0, .L30+28
 404 002a 0168     		ldr	r1, [r0]
 405 002c 0A44     		add	r2, r2, r1
 406 002e 0260     		str	r2, [r0]
 184:movement.c    ****     error_right_sum = error_right_sum + error_right;
 407              		.loc 1 184 0
 408 0030 0B49     		ldr	r1, .L30+32
 409 0032 0A68     		ldr	r2, [r1]
 410 0034 1344     		add	r3, r3, r2
 411 0036 0B60     		str	r3, [r1]
 185:movement.c    **** 
 186:movement.c    **** }
 412              		.loc 1 186 0
 413 0038 5DF8044B 		ldr	r4, [sp], #4
 414              		.cfi_restore 4
 415              		.cfi_def_cfa_offset 0
 416 003c 7047     		bx	lr
 417              	.L31:
 418 003e 00BF     		.align	2
 419              	.L30:
 420 0040 00000000 		.word	error_left
 421 0044 00000000 		.word	error_left_prev
 422 0048 00000000 		.word	error_right
 423 004c 00000000 		.word	error_right_prev
 424 0050 00000000 		.word	.LANCHOR0
 425 0054 00000000 		.word	cur_pos_left
 426 0058 00000000 		.word	cur_pos_right
 427 005c 00000000 		.word	error_left_sum
 428 0060 00000000 		.word	error_right_sum
 429              		.cfi_endproc
 430              	.LFE70:
 431              		.size	Get_Error, .-Get_Error
 432              		.global	__aeabi_i2d
 433              		.global	__aeabi_dmul
 434              		.global	__aeabi_dadd
 435              		.global	__aeabi_d2iz
 436              		.section	.text.Get_PID,"ax",%progbits
 437              		.align	2
 438              		.global	Get_PID
 439              		.thumb
 440              		.thumb_func
 441              		.type	Get_PID, %function
ARM GAS  C:\Users\shevi\AppData\Local\Temp\ccLQTamn.s 			page 12


 442              	Get_PID:
 443              	.LFB71:
 187:movement.c    **** 
 188:movement.c    **** void Get_PID(){   
 444              		.loc 1 188 0
 445              		.cfi_startproc
 446              		@ args = 0, pretend = 0, frame = 8
 447              		@ frame_needed = 0, uses_anonymous_args = 0
 448 0000 2DE9F047 		push	{r4, r5, r6, r7, r8, r9, r10, lr}
 449              		.cfi_def_cfa_offset 32
 450              		.cfi_offset 4, -32
 451              		.cfi_offset 5, -28
 452              		.cfi_offset 6, -24
 453              		.cfi_offset 7, -20
 454              		.cfi_offset 8, -16
 455              		.cfi_offset 9, -12
 456              		.cfi_offset 10, -8
 457              		.cfi_offset 14, -4
 458 0004 82B0     		sub	sp, sp, #8
 459              		.cfi_def_cfa_offset 40
 189:movement.c    ****     volt_motor_left =  ( Kp * error_left ) + ( Ki * error_left_sum ) + ( Kd * (error_left - error_l
 460              		.loc 1 189 0
 461 0006 464B     		ldr	r3, .L38
 462 0008 D3F800A0 		ldr	r10, [r3]
 463 000c 454B     		ldr	r3, .L38+4
 464 000e D3E90067 		ldrd	r6, [r3]
 465 0012 5046     		mov	r0, r10
 466 0014 FFF7FEFF 		bl	__aeabi_i2d
 467              	.LVL29:
 468 0018 3246     		mov	r2, r6
 469 001a 3B46     		mov	r3, r7
 470 001c FFF7FEFF 		bl	__aeabi_dmul
 471              	.LVL30:
 472 0020 8046     		mov	r8, r0
 473 0022 8946     		mov	r9, r1
 474 0024 404B     		ldr	r3, .L38+8
 475 0026 D3E90045 		ldrd	r4, [r3]
 476 002a 404B     		ldr	r3, .L38+12
 477 002c 1868     		ldr	r0, [r3]
 478 002e FFF7FEFF 		bl	__aeabi_i2d
 479              	.LVL31:
 480 0032 2246     		mov	r2, r4
 481 0034 2B46     		mov	r3, r5
 482 0036 FFF7FEFF 		bl	__aeabi_dmul
 483              	.LVL32:
 484 003a 0246     		mov	r2, r0
 485 003c 0B46     		mov	r3, r1
 486 003e 4046     		mov	r0, r8
 487 0040 4946     		mov	r1, r9
 488 0042 FFF7FEFF 		bl	__aeabi_dadd
 489              	.LVL33:
 490 0046 CDE90001 		strd	r0, [sp]
 491 004a 394B     		ldr	r3, .L38+16
 492 004c 1868     		ldr	r0, [r3]
 493 004e 394B     		ldr	r3, .L38+20
 494 0050 D3E90089 		ldrd	r8, [r3]
 495 0054 C0EB0A00 		rsb	r0, r0, r10
ARM GAS  C:\Users\shevi\AppData\Local\Temp\ccLQTamn.s 			page 13


 496 0058 FFF7FEFF 		bl	__aeabi_i2d
 497              	.LVL34:
 498 005c 4246     		mov	r2, r8
 499 005e 4B46     		mov	r3, r9
 500 0060 FFF7FEFF 		bl	__aeabi_dmul
 501              	.LVL35:
 502 0064 0246     		mov	r2, r0
 503 0066 0B46     		mov	r3, r1
 504 0068 DDE90001 		ldrd	r0, [sp]
 505 006c FFF7FEFF 		bl	__aeabi_dadd
 506              	.LVL36:
 507 0070 FFF7FEFF 		bl	__aeabi_d2iz
 508              	.LVL37:
 509 0074 304B     		ldr	r3, .L38+24
 510 0076 1860     		str	r0, [r3]
 190:movement.c    ****     //volt_motor_left =  adj_motor_left;
 191:movement.c    ****     
 192:movement.c    ****         if (volt_motor_left < -65535){
 511              		.loc 1 192 0
 512 0078 10F5803F 		cmn	r0, #65536
 513 007c 02DC     		bgt	.L33
 193:movement.c    ****             volt_motor_left = -65535;}
 514              		.loc 1 193 0
 515 007e 2F4A     		ldr	r2, .L38+28
 516 0080 1A60     		str	r2, [r3]
 517 0082 06E0     		b	.L34
 518              	.L33:
 194:movement.c    ****         else if (volt_motor_left > 65535){
 519              		.loc 1 194 0
 520 0084 B0F5803F 		cmp	r0, #65536
 521 0088 03DB     		blt	.L34
 195:movement.c    ****             volt_motor_left = 65535;}
 522              		.loc 1 195 0
 523 008a 4FF6FF72 		movw	r2, #65535
 524 008e 2A4B     		ldr	r3, .L38+24
 525 0090 1A60     		str	r2, [r3]
 526              	.L34:
 196:movement.c    ****     
 197:movement.c    ****     volt_motor_right = ( Kp * error_right ) + ( Ki * error_right_sum ) + ( Kd * (error_right - erro
 527              		.loc 1 197 0
 528 0092 2B4B     		ldr	r3, .L38+32
 529 0094 D3F800A0 		ldr	r10, [r3]
 530 0098 5046     		mov	r0, r10
 531 009a FFF7FEFF 		bl	__aeabi_i2d
 532              	.LVL38:
 533 009e 0246     		mov	r2, r0
 534 00a0 0B46     		mov	r3, r1
 535 00a2 3046     		mov	r0, r6
 536 00a4 3946     		mov	r1, r7
 537 00a6 FFF7FEFF 		bl	__aeabi_dmul
 538              	.LVL39:
 539 00aa 0646     		mov	r6, r0
 540 00ac 0F46     		mov	r7, r1
 541 00ae 254B     		ldr	r3, .L38+36
 542 00b0 1868     		ldr	r0, [r3]
 543 00b2 FFF7FEFF 		bl	__aeabi_i2d
 544              	.LVL40:
ARM GAS  C:\Users\shevi\AppData\Local\Temp\ccLQTamn.s 			page 14


 545 00b6 0246     		mov	r2, r0
 546 00b8 0B46     		mov	r3, r1
 547 00ba 2046     		mov	r0, r4
 548 00bc 2946     		mov	r1, r5
 549 00be FFF7FEFF 		bl	__aeabi_dmul
 550              	.LVL41:
 551 00c2 0246     		mov	r2, r0
 552 00c4 0B46     		mov	r3, r1
 553 00c6 3046     		mov	r0, r6
 554 00c8 3946     		mov	r1, r7
 555 00ca FFF7FEFF 		bl	__aeabi_dadd
 556              	.LVL42:
 557 00ce 0446     		mov	r4, r0
 558 00d0 0D46     		mov	r5, r1
 559 00d2 1D4B     		ldr	r3, .L38+40
 560 00d4 1868     		ldr	r0, [r3]
 561 00d6 C0EB0A00 		rsb	r0, r0, r10
 562 00da FFF7FEFF 		bl	__aeabi_i2d
 563              	.LVL43:
 564 00de 0246     		mov	r2, r0
 565 00e0 0B46     		mov	r3, r1
 566 00e2 4046     		mov	r0, r8
 567 00e4 4946     		mov	r1, r9
 568 00e6 FFF7FEFF 		bl	__aeabi_dmul
 569              	.LVL44:
 570 00ea 0246     		mov	r2, r0
 571 00ec 0B46     		mov	r3, r1
 572 00ee 2046     		mov	r0, r4
 573 00f0 2946     		mov	r1, r5
 574 00f2 FFF7FEFF 		bl	__aeabi_dadd
 575              	.LVL45:
 576 00f6 FFF7FEFF 		bl	__aeabi_d2iz
 577              	.LVL46:
 578 00fa 144B     		ldr	r3, .L38+44
 579 00fc 1860     		str	r0, [r3]
 198:movement.c    ****     //volt_motor_right =  adj_motor_right;
 199:movement.c    ****     
 200:movement.c    ****         if (volt_motor_right < -65535){
 580              		.loc 1 200 0
 581 00fe 10F5803F 		cmn	r0, #65536
 582 0102 02DC     		bgt	.L35
 201:movement.c    ****             volt_motor_right = -65535;}
 583              		.loc 1 201 0
 584 0104 0D4A     		ldr	r2, .L38+28
 585 0106 1A60     		str	r2, [r3]
 586 0108 06E0     		b	.L32
 587              	.L35:
 202:movement.c    ****         else if (volt_motor_right > 65535){
 588              		.loc 1 202 0
 589 010a B0F5803F 		cmp	r0, #65536
 590 010e 03DB     		blt	.L32
 203:movement.c    ****             volt_motor_right = 65535;}
 591              		.loc 1 203 0
 592 0110 4FF6FF72 		movw	r2, #65535
 593 0114 0D4B     		ldr	r3, .L38+44
 594 0116 1A60     		str	r2, [r3]
 595              	.L32:
ARM GAS  C:\Users\shevi\AppData\Local\Temp\ccLQTamn.s 			page 15


 204:movement.c    **** }    
 596              		.loc 1 204 0
 597 0118 02B0     		add	sp, sp, #8
 598              		.cfi_def_cfa_offset 32
 599              		@ sp needed
 600 011a BDE8F087 		pop	{r4, r5, r6, r7, r8, r9, r10, pc}
 601              	.L39:
 602 011e 00BF     		.align	2
 603              	.L38:
 604 0120 00000000 		.word	error_left
 605 0124 00000000 		.word	Kp
 606 0128 00000000 		.word	Ki
 607 012c 00000000 		.word	error_left_sum
 608 0130 00000000 		.word	error_left_prev
 609 0134 00000000 		.word	Kd
 610 0138 00000000 		.word	volt_motor_left
 611 013c 0100FFFF 		.word	-65535
 612 0140 00000000 		.word	error_right
 613 0144 00000000 		.word	error_right_sum
 614 0148 00000000 		.word	error_right_prev
 615 014c 00000000 		.word	volt_motor_right
 616              		.cfi_endproc
 617              	.LFE71:
 618              		.size	Get_PID, .-Get_PID
 619              		.section	.text.Adj_Volt,"ax",%progbits
 620              		.align	2
 621              		.global	Adj_Volt
 622              		.thumb
 623              		.thumb_func
 624              		.type	Adj_Volt, %function
 625              	Adj_Volt:
 626              	.LFB72:
 205:movement.c    **** void Adj_Volt(){
 627              		.loc 1 205 0
 628              		.cfi_startproc
 629              		@ args = 0, pretend = 0, frame = 0
 630              		@ frame_needed = 0, uses_anonymous_args = 0
 631 0000 08B5     		push	{r3, lr}
 632              		.cfi_def_cfa_offset 8
 633              		.cfi_offset 3, -8
 634              		.cfi_offset 14, -4
 206:movement.c    ****     
 207:movement.c    ****     turn_wheel('l', volt_motor_left);
 635              		.loc 1 207 0
 636 0002 6C20     		movs	r0, #108
 637 0004 044B     		ldr	r3, .L42
 638 0006 1968     		ldr	r1, [r3]
 639 0008 FFF7FEFF 		bl	turn_wheel
 640              	.LVL47:
 208:movement.c    ****     turn_wheel('r', volt_motor_right);
 641              		.loc 1 208 0
 642 000c 7220     		movs	r0, #114
 643 000e 034B     		ldr	r3, .L42+4
 644 0010 1968     		ldr	r1, [r3]
 645 0012 FFF7FEFF 		bl	turn_wheel
 646              	.LVL48:
 647 0016 08BD     		pop	{r3, pc}
ARM GAS  C:\Users\shevi\AppData\Local\Temp\ccLQTamn.s 			page 16


 648              	.L43:
 649              		.align	2
 650              	.L42:
 651 0018 00000000 		.word	volt_motor_left
 652 001c 00000000 		.word	volt_motor_right
 653              		.cfi_endproc
 654              	.LFE72:
 655              		.size	Adj_Volt, .-Adj_Volt
 656              		.section	.text.Check_Speed,"ax",%progbits
 657              		.align	2
 658              		.global	Check_Speed
 659              		.thumb
 660              		.thumb_func
 661              		.type	Check_Speed, %function
 662              	Check_Speed:
 663              	.LFB73:
 209:movement.c    **** }
 210:movement.c    **** 
 211:movement.c    **** void Check_Speed(){
 664              		.loc 1 211 0
 665              		.cfi_startproc
 666              		@ args = 0, pretend = 0, frame = 0
 667              		@ frame_needed = 0, uses_anonymous_args = 0
 668 0000 08B5     		push	{r3, lr}
 669              		.cfi_def_cfa_offset 8
 670              		.cfi_offset 3, -8
 671              		.cfi_offset 14, -4
 212:movement.c    ****     time_ms = time_ms + 1;
 672              		.loc 1 212 0
 673 0002 074A     		ldr	r2, .L46
 674 0004 1368     		ldr	r3, [r2]
 675 0006 0133     		adds	r3, r3, #1
 676 0008 1360     		str	r3, [r2]
 213:movement.c    ****     Get_Destination();  // update the destination
 677              		.loc 1 213 0
 678 000a FFF7FEFF 		bl	Get_Destination
 679              	.LVL49:
 214:movement.c    ****     Get_Position();     // update the position
 680              		.loc 1 214 0
 681 000e FFF7FEFF 		bl	Get_Position
 682              	.LVL50:
 215:movement.c    ****     Get_Error();        // update the current and previous errors
 683              		.loc 1 215 0
 684 0012 FFF7FEFF 		bl	Get_Error
 685              	.LVL51:
 216:movement.c    ****     Get_PID();          // calculate the current voltages required
 686              		.loc 1 216 0
 687 0016 FFF7FEFF 		bl	Get_PID
 688              	.LVL52:
 217:movement.c    ****     Adj_Volt();      // update the speed of the wheVels
 689              		.loc 1 217 0
 690 001a FFF7FEFF 		bl	Adj_Volt
 691              	.LVL53:
 692 001e 08BD     		pop	{r3, pc}
 693              	.L47:
 694              		.align	2
 695              	.L46:
ARM GAS  C:\Users\shevi\AppData\Local\Temp\ccLQTamn.s 			page 17


 696 0020 00000000 		.word	time_ms
 697              		.cfi_endproc
 698              	.LFE73:
 699              		.size	Check_Speed, .-Check_Speed
 700              		.section	.text.Print_Values,"ax",%progbits
 701              		.align	2
 702              		.global	Print_Values
 703              		.thumb
 704              		.thumb_func
 705              		.type	Print_Values, %function
 706              	Print_Values:
 707              	.LFB74:
 218:movement.c    ****     
 219:movement.c    **** }
 220:movement.c    **** 
 221:movement.c    **** void Print_Values(){
 708              		.loc 1 221 0
 709              		.cfi_startproc
 710              		@ args = 0, pretend = 0, frame = 0
 711              		@ frame_needed = 0, uses_anonymous_args = 0
 712 0000 10B5     		push	{r4, lr}
 713              		.cfi_def_cfa_offset 8
 714              		.cfi_offset 4, -8
 715              		.cfi_offset 14, -4
 716 0002 86B0     		sub	sp, sp, #24
 717              		.cfi_def_cfa_offset 32
 222:movement.c    ****     sprintf(mystring, "%d|%d|%ld|%ld|%ld|%d|%d|%d\n", error_left, volt_motor_left, cur_pos_left, cu
 718              		.loc 1 222 0
 719 0004 104B     		ldr	r3, .L50
 720 0006 1A68     		ldr	r2, [r3]
 721 0008 104C     		ldr	r4, .L50+4
 722 000a 114B     		ldr	r3, .L50+8
 723 000c 1B68     		ldr	r3, [r3]
 724 000e 1149     		ldr	r1, .L50+12
 725 0010 0968     		ldr	r1, [r1]
 726 0012 0091     		str	r1, [sp]
 727 0014 1049     		ldr	r1, .L50+16
 728 0016 0968     		ldr	r1, [r1]
 729 0018 0191     		str	r1, [sp, #4]
 730 001a 1049     		ldr	r1, .L50+20
 731 001c 0968     		ldr	r1, [r1]
 732 001e 1048     		ldr	r0, .L50+24
 733 0020 0068     		ldr	r0, [r0]
 734 0022 091A     		subs	r1, r1, r0
 735 0024 0291     		str	r1, [sp, #8]
 736 0026 0392     		str	r2, [sp, #12]
 737 0028 0E49     		ldr	r1, .L50+28
 738 002a 0968     		ldr	r1, [r1]
 739 002c 511A     		subs	r1, r2, r1
 740 002e 0491     		str	r1, [sp, #16]
 741 0030 0D49     		ldr	r1, .L50+32
 742 0032 0968     		ldr	r1, [r1]
 743 0034 0591     		str	r1, [sp, #20]
 744 0036 2046     		mov	r0, r4
 745 0038 0C49     		ldr	r1, .L50+36
 746 003a FFF7FEFF 		bl	sprintf
 747              	.LVL54:
ARM GAS  C:\Users\shevi\AppData\Local\Temp\ccLQTamn.s 			page 18


 223:movement.c    ****     UART_PutString(mystring);
 748              		.loc 1 223 0
 749 003e 2046     		mov	r0, r4
 750 0040 FFF7FEFF 		bl	UART_PutString
 751              	.LVL55:
 224:movement.c    ****     
 225:movement.c    ****     /*
 226:movement.c    ****     sprintf(mystring, "left error:%d     right error: %d\n", error_left, error_right);
 227:movement.c    ****     UART_PutString(mystring);
 228:movement.c    ****     sprintf(mystring, "left voltage:%d     right voltage: %d\n", volt_motor_left, volt_motor_right)
 229:movement.c    ****     UART_PutString(mystring);
 230:movement.c    ****     sprintf(mystring, "left position:%ld     right position: %ld\n", cur_pos_left, cur_pos_right);
 231:movement.c    ****     UART_PutString(mystring);
 232:movement.c    ****     sprintf(mystring, "left destination:%ld     right destination: %ld\n", cur_dest_left, cur_dest_
 233:movement.c    ****     UART_PutString(mystring);
 234:movement.c    ****     */
 235:movement.c    **** }
 752              		.loc 1 235 0
 753 0044 06B0     		add	sp, sp, #24
 754              		.cfi_def_cfa_offset 8
 755              		@ sp needed
 756 0046 10BD     		pop	{r4, pc}
 757              	.L51:
 758              		.align	2
 759              	.L50:
 760 0048 00000000 		.word	error_left
 761 004c 00000000 		.word	mystring
 762 0050 00000000 		.word	volt_motor_left
 763 0054 00000000 		.word	cur_pos_left
 764 0058 00000000 		.word	.LANCHOR0
 765 005c 00000000 		.word	time_ms
 766 0060 00000000 		.word	time_ms_start
 767 0064 00000000 		.word	error_left_prev
 768 0068 00000000 		.word	error_left_sum
 769 006c 00000000 		.word	.LC0
 770              		.cfi_endproc
 771              	.LFE74:
 772              		.size	Print_Values, .-Print_Values
 773              		.comm	time_ms_start,4,4
 774              		.comm	time_ms,4,4
 775              		.comm	inc_right,4,4
 776              		.comm	inc_left,4,4
 777              		.comm	speed_right,4,4
 778              		.comm	speed_left,4,4
 779              		.comm	Kd,8,8
 780              		.comm	Ki,8,8
 781              		.comm	Kp,8,8
 782              		.comm	error_right_sum,4,4
 783              		.comm	error_left_sum,4,4
 784              		.comm	error_right_prev,4,4
 785              		.comm	error_left_prev,4,4
 786              		.comm	error_right,4,4
 787              		.comm	error_left,4,4
 788              		.comm	adj_motor_right,4,4
 789              		.comm	adj_motor_left,4,4
 790              		.comm	volt_motor_right,4,4
 791              		.comm	volt_motor_left,4,4
ARM GAS  C:\Users\shevi\AppData\Local\Temp\ccLQTamn.s 			page 19


 792              		.comm	last_pos_left,4,4
 793              		.comm	last_pos_right,4,4
 794              		.comm	cur_pos_right,4,4
 795              		.comm	cur_pos_left,4,4
 796              		.comm	prev_dest_left,4,4
 797              		.comm	prev_dest_right,4,4
 798              		.global	cur_dest_right
 799              		.global	cur_dest_left
 800              		.comm	mystring,50,4
 801              		.section	.rodata.str1.4,"aMS",%progbits,1
 802              		.align	2
 803              	.LC0:
 804 0000 25647C25 		.ascii	"%d|%d|%ld|%ld|%ld|%d|%d|%d\012\000"
 804      647C256C 
 804      647C256C 
 804      647C256C 
 804      647C2564 
 805              		.bss
 806              		.align	2
 807              		.set	.LANCHOR0,. + 0
 808              		.type	cur_dest_left, %object
 809              		.size	cur_dest_left, 4
 810              	cur_dest_left:
 811 0000 00000000 		.space	4
 812              		.type	cur_dest_right, %object
 813              		.size	cur_dest_right, 4
 814              	cur_dest_right:
 815 0004 00000000 		.space	4
 816              		.text
 817              	.Letext0:
 818              		.file 2 "c:\\program files (x86)\\cypress\\psoc creator\\4.0\\psoc creator\\import\\gnu\\arm\\4.9.
 819              		.file 3 "c:\\program files (x86)\\cypress\\psoc creator\\4.0\\psoc creator\\import\\gnu\\arm\\4.9.
 820              		.file 4 "Generated_Source\\PSoC5/cytypes.h"
 821              		.file 5 "Generated_Source\\PSoC5/core_cm3.h"
 822              		.file 6 "Generated_Source\\PSoC5/Standby.h"
 823              		.file 7 "Generated_Source\\PSoC5/PWM_M2.h"
 824              		.file 8 "Generated_Source\\PSoC5/M2_FWD.h"
 825              		.file 9 "Generated_Source\\PSoC5/M2_BWD.h"
 826              		.file 10 "Generated_Source\\PSoC5/PWM_M1.h"
 827              		.file 11 "Generated_Source\\PSoC5/M1_FWD.h"
 828              		.file 12 "Generated_Source\\PSoC5/M1_BWD.h"
 829              		.file 13 "Generated_Source\\PSoC5/M2QuadDec.h"
 830              		.file 14 "Generated_Source\\PSoC5/M1QuadDec.h"
 831              		.file 15 "Generated_Source\\PSoC5/UART.h"
 832              		.file 16 "c:\\program files (x86)\\cypress\\psoc creator\\4.0\\psoc creator\\import\\gnu\\arm\\4.9